

HI-TECH Software PIC LITE Macro Assembler V9.82 build 9453 
                                                                                               Thu Nov 13 10:16:25 2014

HI-TECH Software Omniscient Code Generator (Lite mode) build 9453
     1  0000                     opt subtitle "HI-TECH Software Omniscient Code Generator (Lite mode) build 9453"
     2                           
     3                           opt pagewidth 120
     4                           
     5                           	opt lm
     6                           
     7                           	processor	16F887
     8                           clrc	macro
     9                           	bcf	3,0
    10  0000                     	endm
    11                           clrz	macro
    12                           	bcf	3,2
    13  0000                     	endm
    14                           setc	macro
    15                           	bsf	3,0
    16  0000                     	endm
    17                           setz	macro
    18                           	bsf	3,2
    19  0000                     	endm
    20                           skipc	macro
    21                           	btfss	3,0
    22  0000                     	endm
    23                           skipz	macro
    24                           	btfss	3,2
    25  0000                     	endm
    26                           skipnc	macro
    27                           	btfsc	3,0
    28  0000                     	endm
    29                           skipnz	macro
    30                           	btfsc	3,2
    31  0000                     	endm
    32  0000                     indf	equ	0
    33  0000                     indf0	equ	0
    34  0002                     pc	equ	2
    35  0002                     pcl	equ	2
    36  0003                     status	equ	3
    37  0004                     fsr	equ	4
    38  0004                     fsr0	equ	4
    39  0001                     c	equ	1
    40  0000                     z	equ	0
    41  000A                     pclath	equ	10
    42                           # 6 "Z:\Users\ittus\Studying\FU\Fall 2014\ESH201\Assignment 2\C_LCD.c"
    43                           	psect config,class=CONFIG,delta=2 ;#
    44                           # 6 "Z:\Users\ittus\Studying\FU\Fall 2014\ESH201\Assignment 2\C_LCD.c"
    45  2007  E021               	dw 0xFFF9 & 0xFFF7 & 0xFFEF & 0xFFFF & 0xFFBF & 0xFF7F & 0xFCFF & 0xFBFF & 0xF7FF & 0xE
                                 FFF ;#
    46                           	FNCALL	_main,_lcd_init
    47                           	FNCALL	_main,_uart_init
    48                           	FNCALL	_main,_enable_interrupt
    49                           	FNCALL	_main,_displayToLCD
    50                           	FNCALL	_displayToLCD,_lcd_clear
    51                           	FNCALL	_displayToLCD,_sprintf
    52                           	FNCALL	_displayToLCD,_lcd_puts
    53                           	FNCALL	_displayToLCD,_uart_puts
    54                           	FNCALL	_lcd_puts,_lcd_putc
    55                           	FNCALL	_lcd_putc,_lcd_put_byte
    56                           	FNCALL	_lcd_putc,_lcd_busy
    57                           	FNCALL	_lcd_putc,_lcd_gotoxy
    58                           	FNCALL	_lcd_putc,_isprint
    59                           	FNCALL	_lcd_gotoxy,_lcd_put_byte
    60                           	FNCALL	_lcd_gotoxy,_lcd_busy
    61                           	FNCALL	_lcd_init,_lcd_put_byte
    62                           	FNCALL	_lcd_init,_lcd_busy
    63                           	FNCALL	_lcd_clear,_lcd_put_byte
    64                           	FNCALL	_lcd_clear,_lcd_busy
    65                           	FNCALL	_enable_interrupt,_set_counter
    66                           	FNCALL	_uart_puts,_uart_putc
    67                           	FNCALL	_sprintf,_isdigit
    68                           	FNCALL	_sprintf,___wmul
    69                           	FNCALL	_sprintf,___lwdiv
    70                           	FNCALL	_sprintf,___lwmod
    71                           	FNROOT	_main
    72                           	FNCALL	_inter_func,i1_set_counter
    73                           	FNCALL	_inter_func,_uart_gets
    74                           	FNCALL	_inter_func,_strcmp
    75                           	FNCALL	_inter_func,i1_lcd_clear
    76                           	FNCALL	_inter_func,i1_uart_puts
    77                           	FNCALL	_inter_func,i1_lcd_puts
    78                           	FNCALL	_inter_func,i1___wmul
    79                           	FNCALL	i1_lcd_puts,i1_lcd_putc
    80                           	FNCALL	i1_lcd_putc,i1_lcd_put_byte
    81                           	FNCALL	i1_lcd_putc,i1_lcd_busy
    82                           	FNCALL	i1_lcd_putc,i1_lcd_gotoxy
    83                           	FNCALL	i1_lcd_putc,i1_isprint
    84                           	FNCALL	i1_lcd_clear,i1_lcd_put_byte
    85                           	FNCALL	i1_lcd_clear,i1_lcd_busy
    86                           	FNCALL	i1_lcd_gotoxy,i1_lcd_put_byte
    87                           	FNCALL	i1_lcd_gotoxy,i1_lcd_busy
    88                           	FNCALL	i1_uart_puts,i1_uart_putc
    89                           	FNCALL	_uart_gets,_uart_getc
    90                           	FNCALL	intlevel1,_inter_func
    91                           	global	intlevel1
    92                           	FNROOT	intlevel1
    93                           	global	_dpowers
    94                           psect	strings,class=STRING,delta=2
    95                           global __pstrings
    96  0700                     __pstrings:
    97                           ;	global	stringdir,stringtab,__stringbase
    98  0700                     stringtab:
    99                           ;	String table - string pointers are 1 byte each
   100  0700  1BFF               	btfsc	(btemp+1),7
   101  0701  2F0A               	ljmp	stringcode
   102  0702  1383               	bcf	status,7
   103  0703  187F               	btfsc	(btemp+1),0
   104  0704  1783               	bsf	status,7
   105  0705  0800               	movf	indf,w
   106  0706  0A84               	incf fsr
   107  0707  1903               skipnz
   108  0708  0AFF               incf btemp+1
   109  0709  0008               	return
   110  070A                     stringcode:stringdir:
      + 070A                     stringdir:	
   111  070A  3007               movlw high(stringdir)
   112  070B  008A               movwf pclath
   113  070C  0804               movf fsr,w
   114  070D  0A84               incf fsr
   115  070E  0782               	addwf pc
   116  070F                     __stringbase:
   117  070F  3400               	retlw	0
   118                           psect	strings
   119                           	file	"C:\Program Files\HI-TECH Software\PICC\9.82\sources\doprnt.c"
   120                           	line	350
   121  0710                     _dpowers:
   122  0710  3401               	retlw	01h
   123  0711  3400               	retlw	0
   124                           
   125  0712  340A               	retlw	0Ah
   126  0713  3400               	retlw	0
   127                           
   128  0714  3464               	retlw	064h
   129  0715  3400               	retlw	0
   130                           
   131  0716  34E8               	retlw	0E8h
   132  0717  3403               	retlw	03h
   133                           
   134  0718  3410               	retlw	010h
   135  0719  3427               	retlw	027h
   136                           
   137                           	global	_dpowers
   138                           	global	_hour
   139                           	global	_minute
   140                           	global	_second
   141                           	global	_RCREG
   142  001A                     _RCREG	set	26
   143                           	global	_TMR1H
   144  000F                     _TMR1H	set	15
   145                           	global	_TMR1L
   146  000E                     _TMR1L	set	14
   147                           	global	_TXREG
   148  0019                     _TXREG	set	25
   149                           	global	_CARRY
   150  0018                     _CARRY	set	24
   151                           	global	_CREN
   152  00C4                     _CREN	set	196
   153                           	global	_GIE
   154  005F                     _GIE	set	95
   155                           	global	_PEIE
   156  005E                     _PEIE	set	94
   157                           	global	_RCIF
   158  0065                     _RCIF	set	101
   159                           	global	_RD1
   160  0041                     _RD1	set	65
   161                           	global	_RD2
   162  0042                     _RD2	set	66
   163                           	global	_RD3
   164  0043                     _RD3	set	67
   165                           	global	_RD4
   166  0044                     _RD4	set	68
   167                           	global	_RD5
   168  0045                     _RD5	set	69
   169                           	global	_RD6
   170  0046                     _RD6	set	70
   171                           	global	_RD7
   172  0047                     _RD7	set	71
   173                           	global	_RX9
   174  00C6                     _RX9	set	198
   175                           	global	_SPEN
   176  00C7                     _SPEN	set	199
   177                           	global	_SREN
   178  00C5                     _SREN	set	197
   179                           	global	_T1CKPS0
   180  0084                     _T1CKPS0	set	132
   181                           	global	_T1CKPS1
   182  0085                     _T1CKPS1	set	133
   183                           	global	_T1OSCEN
   184  0083                     _T1OSCEN	set	131
   185                           	global	_T1SYNC
   186  0082                     _T1SYNC	set	130
   187                           	global	_TMR1CS
   188  0081                     _TMR1CS	set	129
   189                           	global	_TMR1IF
   190  0060                     _TMR1IF	set	96
   191                           	global	_TMR1ON
   192  0080                     _TMR1ON	set	128
   193                           	global	_TXIF
   194  0064                     _TXIF	set	100
   195                           	global	_SPBRG
   196  0099                     _SPBRG	set	153
   197                           	global	_BRGH
   198  04C2                     _BRGH	set	1218
   199                           	global	_RCIE
   200  0465                     _RCIE	set	1125
   201                           	global	_SYNC
   202  04C4                     _SYNC	set	1220
   203                           	global	_TMR1IE
   204  0460                     _TMR1IE	set	1120
   205                           	global	_TRISC6
   206  043E                     _TRISC6	set	1086
   207                           	global	_TRISC7
   208  043F                     _TRISC7	set	1087
   209                           	global	_TRISD1
   210  0441                     _TRISD1	set	1089
   211                           	global	_TRISD2
   212  0442                     _TRISD2	set	1090
   213                           	global	_TRISD3
   214  0443                     _TRISD3	set	1091
   215                           	global	_TRISD4
   216  0444                     _TRISD4	set	1092
   217                           	global	_TRISD5
   218  0445                     _TRISD5	set	1093
   219                           	global	_TRISD6
   220  0446                     _TRISD6	set	1094
   221                           	global	_TRISD7
   222  0447                     _TRISD7	set	1095
   223                           	global	_TX9
   224  04C6                     _TX9	set	1222
   225                           	global	_TXEN
   226  04C5                     _TXEN	set	1221
   227                           	global	_TXIE
   228  0464                     _TXIE	set	1124
   229                           	global	_EEADR
   230  010D                     _EEADR	set	269
   231                           	global	_EEDATA
   232  010C                     _EEDATA	set	268
   233                           	global	_EECON1
   234  018C                     _EECON1	set	396
   235                           	global	_EECON2
   236  018D                     _EECON2	set	397
   237                           	global	_RD
   238  0C60                     _RD	set	3168
   239                           	global	_WR
   240  0C61                     _WR	set	3169
   241                           	global	_WREN
   242  0C62                     _WREN	set	3170
   243                           	
   244  071A                     STR_1:	
   245  071A  3425               	retlw	37	;'%'
   246  071B  3430               	retlw	48	;'0'
   247  071C  3432               	retlw	50	;'2'
   248  071D  3464               	retlw	100	;'d'
   249  071E  343A               	retlw	58	;':'
   250  071F  3425               	retlw	37	;'%'
   251  0720  3430               	retlw	48	;'0'
   252  0721  3432               	retlw	50	;'2'
   253  0722  3464               	retlw	100	;'d'
   254  0723  343A               	retlw	58	;':'
   255  0724  3425               	retlw	37	;'%'
   256  0725  3430               	retlw	48	;'0'
   257  0726  3432               	retlw	50	;'2'
   258  0727  3464               	retlw	100	;'d'
   259  0728  340A               	retlw	10
   260  0729  3400               	retlw	0
   261                           psect	strings
   262                           	
   263  072A                     STR_3:	
   264  072A  3449               	retlw	73	;'I'
   265  072B  3420               	retlw	32	;' '
   266  072C  3461               	retlw	97	;'a'
   267  072D  346D               	retlw	109	;'m'
   268  072E  3420               	retlw	32	;' '
   269  072F  3431               	retlw	49	;'1'
   270  0730  3436               	retlw	54	;'6'
   271  0731  3466               	retlw	102	;'f'
   272  0732  3438               	retlw	56	;'8'
   273  0733  3438               	retlw	56	;'8'
   274  0734  3437               	retlw	55	;'7'
   275  0735  340A               	retlw	10
   276  0736  3400               	retlw	0
   277                           psect	strings
   278                           	
   279  0737                     STR_4:	
   280  0737  3443               	retlw	67	;'C'
   281  0738  346F               	retlw	111	;'o'
   282  0739  346E               	retlw	110	;'n'
   283  073A  346E               	retlw	110	;'n'
   284  073B  3465               	retlw	101	;'e'
   285  073C  3463               	retlw	99	;'c'
   286  073D  3474               	retlw	116	;'t'
   287  073E  3469               	retlw	105	;'i'
   288  073F  346E               	retlw	110	;'n'
   289  0740  3467               	retlw	103	;'g'
   290  0741  342E               	retlw	46	;'.'
   291  0742  342E               	retlw	46	;'.'
   292  0743  3400               	retlw	0
   293                           psect	strings
   294                           	
   295  0744                     STR_2:	
   296  0744  3470               	retlw	112	;'p'
   297  0745  3469               	retlw	105	;'i'
   298  0746  3463               	retlw	99	;'c'
   299  0747  3431               	retlw	49	;'1'
   300  0748  3436               	retlw	54	;'6'
   301  0749  3466               	retlw	102	;'f'
   302  074A  3438               	retlw	56	;'8'
   303  074B  3438               	retlw	56	;'8'
   304  074C  3437               	retlw	55	;'7'
   305  074D  343F               	retlw	63	;'?'
   306  074E  3400               	retlw	0
   307                           psect	strings
   308                           	file	"C_LCD.as"
   309                           	line	#
   310                           psect cinit,class=CODE,delta=2
   311                           global start_initialization
   312  0D53                     start_initialization:
   313                           
   314                           psect	bssBANK0,class=BANK0,space=1
   315                           global __pbssBANK0
   316  005B                     __pbssBANK0:
   317  005B                     _hour:
   318  005B                            ds      2
   319                           
   320  005D                     _minute:
   321  005D                            ds      2
   322                           
   323  005F                     _second:
   324  005F                            ds      2
   325                           
   326                           ; Clear objects allocated to BANK0
   327                           psect cinit,class=CODE,delta=2
   328  0D53  01DB               	clrf	((__pbssBANK0)+0)&07Fh
   329  0D54  01DC               	clrf	((__pbssBANK0)+1)&07Fh
   330  0D55  01DD               	clrf	((__pbssBANK0)+2)&07Fh
   331  0D56  01DE               	clrf	((__pbssBANK0)+3)&07Fh
   332  0D57  01DF               	clrf	((__pbssBANK0)+4)&07Fh
   333  0D58  01E0               	clrf	((__pbssBANK0)+5)&07Fh
   334                           psect cinit,class=CODE,delta=2
   335                           global end_of_initialization
   336                           
   337                           ;End of C runtime variable initialization code
   338                           
   339  0D59                     end_of_initialization:
   340  0D59  0183               clrf status
   341  0D5A  120A  118A  2F95   ljmp _main	;jump to C main() function
   342                           psect	cstackBANK1,class=BANK1,space=1
   343                           global __pcstackBANK1
   344  00A0                     __pcstackBANK1:
   345                           	global	displayToLCD@temp
   346  00A0                     displayToLCD@temp:	; 8 bytes @ 0x0
   347  00A0                     	ds	8
   348                           psect	cstackCOMMON,class=COMMON,space=1
   349                           global __pcstackCOMMON
   350  0070                     __pcstackCOMMON:
   351                           	global	?_lcd_clear
   352  0070                     ?_lcd_clear:	; 0 bytes @ 0x0
   353                           	global	?_uart_gets
   354  0070                     ?_uart_gets:	; 0 bytes @ 0x0
   355                           	global	??_uart_gets
   356  0070                     ??_uart_gets:	; 0 bytes @ 0x0
   357                           	global	?_lcd_init
   358  0070                     ?_lcd_init:	; 0 bytes @ 0x0
   359                           	global	?_uart_init
   360  0070                     ?_uart_init:	; 0 bytes @ 0x0
   361                           	global	?_isprint
   362  0070                     ?_isprint:	; 1 bit 
   363                           	global	?_isdigit
   364  0070                     ?_isdigit:	; 1 bit 
   365                           	global	?_set_counter
   366  0070                     ?_set_counter:	; 0 bytes @ 0x0
   367                           	global	?_enable_interrupt
   368  0070                     ?_enable_interrupt:	; 0 bytes @ 0x0
   369                           	global	?_inter_func
   370  0070                     ?_inter_func:	; 0 bytes @ 0x0
   371                           	global	?_main
   372  0070                     ?_main:	; 0 bytes @ 0x0
   373                           	global	?_lcd_putc
   374  0070                     ?_lcd_putc:	; 0 bytes @ 0x0
   375                           	global	?_uart_putc
   376  0070                     ?_uart_putc:	; 0 bytes @ 0x0
   377                           	global	??_uart_getc
   378  0070                     ??_uart_getc:	; 0 bytes @ 0x0
   379                           	global	?i1_set_counter
   380  0070                     ?i1_set_counter:	; 0 bytes @ 0x0
   381                           	global	??i1_set_counter
   382  0070                     ??i1_set_counter:	; 0 bytes @ 0x0
   383                           	global	??i1_lcd_busy
   384  0070                     ??i1_lcd_busy:	; 0 bytes @ 0x0
   385                           	global	?i1_lcd_put_byte
   386  0070                     ?i1_lcd_put_byte:	; 0 bytes @ 0x0
   387                           	global	?i1_lcd_putc
   388  0070                     ?i1_lcd_putc:	; 0 bytes @ 0x0
   389                           	global	?i1_lcd_puts
   390  0070                     ?i1_lcd_puts:	; 0 bytes @ 0x0
   391                           	global	?i1_lcd_clear
   392  0070                     ?i1_lcd_clear:	; 0 bytes @ 0x0
   393                           	global	?i1_uart_putc
   394  0070                     ?i1_uart_putc:	; 0 bytes @ 0x0
   395                           	global	??i1_uart_putc
   396  0070                     ??i1_uart_putc:	; 0 bytes @ 0x0
   397                           	global	?i1_uart_puts
   398  0070                     ?i1_uart_puts:	; 0 bytes @ 0x0
   399                           	global	?i1_isprint
   400  0070                     ?i1_isprint:	; 1 bit 
   401                           	global	??i1_isprint
   402  0070                     ??i1_isprint:	; 0 bytes @ 0x0
   403                           	global	?_lcd_busy
   404  0070                     ?_lcd_busy:	; 1 bytes @ 0x0
   405                           	global	?_uart_getc
   406  0070                     ?_uart_getc:	; 1 bytes @ 0x0
   407                           	global	?i1_lcd_busy
   408  0070                     ?i1_lcd_busy:	; 1 bytes @ 0x0
   409                           	global	?_strcmp
   410  0070                     ?_strcmp:	; 2 bytes @ 0x0
   411                           	global	?i1___wmul
   412  0070                     ?i1___wmul:	; 2 bytes @ 0x0
   413                           	global	strcmp@s2
   414  0070                     strcmp@s2:	; 1 bytes @ 0x0
   415                           	global	i1lcd_put_byte@b
   416  0070                     i1lcd_put_byte@b:	; 1 bytes @ 0x0
   417                           	global	i1uart_putc@c
   418  0070                     i1uart_putc@c:	; 1 bytes @ 0x0
   419                           	global	i1_isprint$4894
   420  0070                     i1_isprint$4894:	; 1 bytes @ 0x0
   421                           	global	i1___wmul@multiplier
   422  0070                     i1___wmul@multiplier:	; 2 bytes @ 0x0
   423  0070                     	ds	1
   424                           	global	??i1_lcd_put_byte
   425  0071                     ??i1_lcd_put_byte:	; 0 bytes @ 0x1
   426                           	global	??i1_uart_puts
   427  0071                     ??i1_uart_puts:	; 0 bytes @ 0x1
   428                           	global	uart_gets@s
   429  0071                     uart_gets@s:	; 1 bytes @ 0x1
   430                           	global	i1lcd_busy@busy
   431  0071                     i1lcd_busy@busy:	; 1 bytes @ 0x1
   432                           	global	i1uart_puts@s
   433  0071                     i1uart_puts@s:	; 1 bytes @ 0x1
   434                           	global	i1isprint@c
   435  0071                     i1isprint@c:	; 1 bytes @ 0x1
   436  0071                     	ds	1
   437                           	global	??_strcmp
   438  0072                     ??_strcmp:	; 0 bytes @ 0x2
   439                           	global	i1___wmul@multiplicand
   440  0072                     i1___wmul@multiplicand:	; 2 bytes @ 0x2
   441  0072                     	ds	1
   442                           	global	i1lcd_put_byte@rs
   443  0073                     i1lcd_put_byte@rs:	; 1 bytes @ 0x3
   444  0073                     	ds	1
   445                           	global	??i1___wmul
   446  0074                     ??i1___wmul:	; 0 bytes @ 0x4
   447                           	global	strcmp@r
   448  0074                     strcmp@r:	; 1 bytes @ 0x4
   449                           	global	i1lcd_put_byte@temp
   450  0074                     i1lcd_put_byte@temp:	; 1 bytes @ 0x4
   451                           	global	i1___wmul@product
   452  0074                     i1___wmul@product:	; 2 bytes @ 0x4
   453  0074                     	ds	1
   454                           	global	?i1_lcd_gotoxy
   455  0075                     ?i1_lcd_gotoxy:	; 0 bytes @ 0x5
   456                           	global	??i1_lcd_clear
   457  0075                     ??i1_lcd_clear:	; 0 bytes @ 0x5
   458                           	global	strcmp@s1
   459  0075                     strcmp@s1:	; 1 bytes @ 0x5
   460                           	global	i1lcd_gotoxy@row
   461  0075                     i1lcd_gotoxy@row:	; 1 bytes @ 0x5
   462  0075                     	ds	1
   463                           	global	??i1_lcd_gotoxy
   464  0076                     ??i1_lcd_gotoxy:	; 0 bytes @ 0x6
   465  0076                     	ds	1
   466                           	global	i1lcd_gotoxy@col
   467  0077                     i1lcd_gotoxy@col:	; 1 bytes @ 0x7
   468  0077                     	ds	1
   469                           	global	i1lcd_gotoxy@address
   470  0078                     i1lcd_gotoxy@address:	; 1 bytes @ 0x8
   471  0078                     	ds	1
   472                           	global	??i1_lcd_putc
   473  0079                     ??i1_lcd_putc:	; 0 bytes @ 0x9
   474  0079                     	ds	1
   475                           	global	i1lcd_putc@c
   476  007A                     i1lcd_putc@c:	; 1 bytes @ 0xA
   477  007A                     	ds	1
   478                           	global	??i1_lcd_puts
   479  007B                     ??i1_lcd_puts:	; 0 bytes @ 0xB
   480                           	global	i1lcd_puts@s
   481  007B                     i1lcd_puts@s:	; 1 bytes @ 0xB
   482  007B                     	ds	1
   483                           psect	cstackBANK0,class=BANK0,space=1
   484                           global __pcstackBANK0
   485  0020                     __pcstackBANK0:
   486                           	global	??_inter_func
   487  0020                     ??_inter_func:	; 0 bytes @ 0x0
   488  0020                     	ds	6
   489                           	global	inter_func@input
   490  0026                     inter_func@input:	; 8 bytes @ 0x6
   491  0026                     	ds	8
   492                           	global	??_uart_init
   493  002E                     ??_uart_init:	; 0 bytes @ 0xE
   494                           	global	?_lcd_put_byte
   495  002E                     ?_lcd_put_byte:	; 0 bytes @ 0xE
   496                           	global	??_lcd_busy
   497  002E                     ??_lcd_busy:	; 0 bytes @ 0xE
   498                           	global	??_isprint
   499  002E                     ??_isprint:	; 0 bytes @ 0xE
   500                           	global	??_isdigit
   501  002E                     ??_isdigit:	; 0 bytes @ 0xE
   502                           	global	??_set_counter
   503  002E                     ??_set_counter:	; 0 bytes @ 0xE
   504                           	global	??_enable_interrupt
   505  002E                     ??_enable_interrupt:	; 0 bytes @ 0xE
   506                           	global	??_uart_putc
   507  002E                     ??_uart_putc:	; 0 bytes @ 0xE
   508                           	global	?___wmul
   509  002E                     ?___wmul:	; 2 bytes @ 0xE
   510                           	global	?___lwdiv
   511  002E                     ?___lwdiv:	; 2 bytes @ 0xE
   512                           	global	lcd_put_byte@b
   513  002E                     lcd_put_byte@b:	; 1 bytes @ 0xE
   514                           	global	uart_putc@c
   515  002E                     uart_putc@c:	; 1 bytes @ 0xE
   516                           	global	_isdigit$4891
   517  002E                     _isdigit$4891:	; 1 bytes @ 0xE
   518                           	global	_isprint$4894
   519  002E                     _isprint$4894:	; 1 bytes @ 0xE
   520                           	global	___wmul@multiplier
   521  002E                     ___wmul@multiplier:	; 2 bytes @ 0xE
   522                           	global	___lwdiv@divisor
   523  002E                     ___lwdiv@divisor:	; 2 bytes @ 0xE
   524  002E                     	ds	1
   525                           	global	?_uart_puts
   526  002F                     ?_uart_puts:	; 0 bytes @ 0xF
   527                           	global	??_lcd_put_byte
   528  002F                     ??_lcd_put_byte:	; 0 bytes @ 0xF
   529                           	global	lcd_busy@busy
   530  002F                     lcd_busy@busy:	; 1 bytes @ 0xF
   531                           	global	isdigit@c
   532  002F                     isdigit@c:	; 1 bytes @ 0xF
   533                           	global	isprint@c
   534  002F                     isprint@c:	; 1 bytes @ 0xF
   535                           	global	uart_puts@s
   536  002F                     uart_puts@s:	; 2 bytes @ 0xF
   537  002F                     	ds	1
   538                           	global	___wmul@multiplicand
   539  0030                     ___wmul@multiplicand:	; 2 bytes @ 0x10
   540                           	global	___lwdiv@dividend
   541  0030                     ___lwdiv@dividend:	; 2 bytes @ 0x10
   542  0030                     	ds	1
   543                           	global	??_uart_puts
   544  0031                     ??_uart_puts:	; 0 bytes @ 0x11
   545                           	global	lcd_put_byte@rs
   546  0031                     lcd_put_byte@rs:	; 1 bytes @ 0x11
   547  0031                     	ds	1
   548                           	global	??___wmul
   549  0032                     ??___wmul:	; 0 bytes @ 0x12
   550                           	global	??___lwdiv
   551  0032                     ??___lwdiv:	; 0 bytes @ 0x12
   552                           	global	lcd_put_byte@temp
   553  0032                     lcd_put_byte@temp:	; 1 bytes @ 0x12
   554                           	global	___wmul@product
   555  0032                     ___wmul@product:	; 2 bytes @ 0x12
   556  0032                     	ds	1
   557                           	global	??_lcd_clear
   558  0033                     ??_lcd_clear:	; 0 bytes @ 0x13
   559                           	global	??_lcd_init
   560  0033                     ??_lcd_init:	; 0 bytes @ 0x13
   561                           	global	?_lcd_gotoxy
   562  0033                     ?_lcd_gotoxy:	; 0 bytes @ 0x13
   563                           	global	lcd_gotoxy@row
   564  0033                     lcd_gotoxy@row:	; 1 bytes @ 0x13
   565                           	global	___lwdiv@counter
   566  0033                     ___lwdiv@counter:	; 1 bytes @ 0x13
   567  0033                     	ds	1
   568                           	global	??_lcd_gotoxy
   569  0034                     ??_lcd_gotoxy:	; 0 bytes @ 0x14
   570                           	global	___lwdiv@quotient
   571  0034                     ___lwdiv@quotient:	; 2 bytes @ 0x14
   572  0034                     	ds	1
   573                           	global	lcd_gotoxy@col
   574  0035                     lcd_gotoxy@col:	; 1 bytes @ 0x15
   575  0035                     	ds	1
   576                           	global	?___lwmod
   577  0036                     ?___lwmod:	; 2 bytes @ 0x16
   578                           	global	lcd_gotoxy@address
   579  0036                     lcd_gotoxy@address:	; 1 bytes @ 0x16
   580                           	global	___lwmod@divisor
   581  0036                     ___lwmod@divisor:	; 2 bytes @ 0x16
   582  0036                     	ds	1
   583                           	global	??_lcd_putc
   584  0037                     ??_lcd_putc:	; 0 bytes @ 0x17
   585  0037                     	ds	1
   586                           	global	lcd_putc@c
   587  0038                     lcd_putc@c:	; 1 bytes @ 0x18
   588                           	global	___lwmod@dividend
   589  0038                     ___lwmod@dividend:	; 2 bytes @ 0x18
   590  0038                     	ds	1
   591                           	global	?_lcd_puts
   592  0039                     ?_lcd_puts:	; 0 bytes @ 0x19
   593                           	global	lcd_puts@s
   594  0039                     lcd_puts@s:	; 2 bytes @ 0x19
   595  0039                     	ds	1
   596                           	global	??___lwmod
   597  003A                     ??___lwmod:	; 0 bytes @ 0x1A
   598  003A                     	ds	1
   599                           	global	??_lcd_puts
   600  003B                     ??_lcd_puts:	; 0 bytes @ 0x1B
   601                           	global	___lwmod@counter
   602  003B                     ___lwmod@counter:	; 1 bytes @ 0x1B
   603  003B                     	ds	1
   604                           	global	?_sprintf
   605  003C                     ?_sprintf:	; 2 bytes @ 0x1C
   606                           	global	sprintf@f
   607  003C                     sprintf@f:	; 1 bytes @ 0x1C
   608  003C                     	ds	7
   609                           	global	??_sprintf
   610  0043                     ??_sprintf:	; 0 bytes @ 0x23
   611  0043                     	ds	3
   612                           	global	sprintf@ap
   613  0046                     sprintf@ap:	; 1 bytes @ 0x26
   614  0046                     	ds	1
   615                           	global	sprintf@prec
   616  0047                     sprintf@prec:	; 1 bytes @ 0x27
   617  0047                     	ds	1
   618                           	global	sprintf@_val
   619  0048                     sprintf@_val:	; 4 bytes @ 0x28
   620  0048                     	ds	4
   621                           	global	sprintf@flag
   622  004C                     sprintf@flag:	; 1 bytes @ 0x2C
   623  004C                     	ds	1
   624                           	global	sprintf@width
   625  004D                     sprintf@width:	; 2 bytes @ 0x2D
   626  004D                     	ds	2
   627                           	global	sprintf@sp
   628  004F                     sprintf@sp:	; 1 bytes @ 0x2F
   629  004F                     	ds	1
   630                           	global	sprintf@c
   631  0050                     sprintf@c:	; 1 bytes @ 0x30
   632  0050                     	ds	1
   633                           	global	?_displayToLCD
   634  0051                     ?_displayToLCD:	; 0 bytes @ 0x31
   635                           	global	displayToLCD@h1
   636  0051                     displayToLCD@h1:	; 2 bytes @ 0x31
   637  0051                     	ds	2
   638                           	global	displayToLCD@m1
   639  0053                     displayToLCD@m1:	; 2 bytes @ 0x33
   640  0053                     	ds	2
   641                           	global	displayToLCD@s1
   642  0055                     displayToLCD@s1:	; 2 bytes @ 0x35
   643  0055                     	ds	2
   644                           	global	??_displayToLCD
   645  0057                     ??_displayToLCD:	; 0 bytes @ 0x37
   646  0057                     	ds	1
   647                           	global	??_main
   648  0058                     ??_main:	; 0 bytes @ 0x38
   649  0058                     	ds	3
   650 ;;Data sizes: Strings 53, constant 10, data 0, bss 6, persistent 0 stack 0
   651 ;;Auto spaces:   Size  Autos    Used
   652 ;; COMMON          14     12      12
   653 ;; BANK0           80     59      65
   654 ;; BANK1           80      8       8
   655 ;; BANK3           96      0       0
   656 ;; BANK2           96      0       0
   657                           
   658 ;;
   659 ;; Pointer list with targets:
   660                           
   661 ;; ?i1___wmul	unsigned int  size(1) Largest target is 0
   662 ;;
   663 ;; i1lcd_puts@s	PTR const unsigned char  size(1) Largest target is 13
   664 ;;		 -> STR_4(CODE[13]), 
   665 ;;
   666 ;; i1uart_puts@s	PTR const unsigned char  size(1) Largest target is 13
   667 ;;		 -> STR_3(CODE[13]), 
   668 ;;
   669 ;; ?___lwdiv	unsigned int  size(1) Largest target is 0
   670 ;;
   671 ;; ?___lwmod	unsigned int  size(1) Largest target is 0
   672 ;;
   673 ;; ?___wmul	unsigned int  size(1) Largest target is 0
   674 ;;
   675 ;; ?_strcmp	int  size(1) Largest target is 0
   676 ;;
   677 ;; strcmp@s2	PTR const unsigned char  size(1) Largest target is 11
   678 ;;		 -> STR_2(CODE[11]), 
   679 ;;
   680 ;; strcmp@s1	PTR const unsigned char  size(1) Largest target is 8
   681 ;;		 -> inter_func@input(BANK0[8]), 
   682 ;;
   683 ;; sprintf@f	PTR const unsigned char  size(1) Largest target is 16
   684 ;;		 -> STR_1(CODE[16]), 
   685 ;;
   686 ;; sprintf@sp	PTR unsigned char  size(1) Largest target is 8
   687 ;;		 -> displayToLCD@temp(BANK1[8]), 
   688 ;;
   689 ;; ?_sprintf	int  size(1) Largest target is 0
   690 ;;
   691 ;; sprintf@ap	PTR void [1] size(1) Largest target is 2
   692 ;;		 -> ?_sprintf(BANK0[2]), 
   693 ;;
   694 ;; S4373$_cp	PTR const unsigned char  size(1) Largest target is 0
   695 ;;
   696 ;; _val._str._cp	PTR const unsigned char  size(1) Largest target is 0
   697 ;;
   698 ;; uart_gets@s	PTR unsigned char  size(1) Largest target is 8
   699 ;;		 -> inter_func@input(BANK0[8]), 
   700 ;;
   701 ;; uart_puts@s	PTR const unsigned char  size(2) Largest target is 13
   702 ;;		 -> STR_3(CODE[13]), displayToLCD@temp(BANK1[8]), 
   703 ;;
   704 ;; lcd_puts@s	PTR const unsigned char  size(2) Largest target is 13
   705 ;;		 -> STR_4(CODE[13]), displayToLCD@temp(BANK1[8]), 
   706 ;;
   707                           
   708                           
   709 ;;
   710 ;; Critical Paths under _main in COMMON
   711 ;;
   712 ;;   None.
   713 ;;
   714 ;; Critical Paths under _inter_func in COMMON
   715 ;;
   716 ;;   _inter_func->i1_lcd_puts
   717 ;;   i1_lcd_puts->i1_lcd_putc
   718 ;;   i1_lcd_putc->i1_lcd_gotoxy
   719 ;;   i1_lcd_clear->i1_lcd_put_byte
   720 ;;   i1_lcd_gotoxy->i1_lcd_put_byte
   721 ;;   i1_uart_puts->i1_uart_putc
   722 ;;
   723 ;; Critical Paths under _main in BANK0
   724 ;;
   725 ;;   _main->_displayToLCD
   726 ;;   _displayToLCD->_sprintf
   727 ;;   _lcd_puts->_lcd_putc
   728 ;;   _lcd_putc->_lcd_gotoxy
   729 ;;   _lcd_gotoxy->_lcd_put_byte
   730 ;;   _lcd_init->_lcd_put_byte
   731 ;;   _lcd_clear->_lcd_put_byte
   732 ;;   _uart_puts->_uart_putc
   733 ;;   _sprintf->___lwmod
   734 ;;   ___lwmod->___lwdiv
   735 ;;
   736 ;; Critical Paths under _inter_func in BANK0
   737 ;;
   738 ;;   None.
   739 ;;
   740 ;; Critical Paths under _main in BANK1
   741 ;;
   742 ;;   _main->_displayToLCD
   743 ;;
   744 ;; Critical Paths under _inter_func in BANK1
   745 ;;
   746 ;;   None.
   747 ;;
   748 ;; Critical Paths under _main in BANK3
   749 ;;
   750 ;;   None.
   751 ;;
   752 ;; Critical Paths under _inter_func in BANK3
   753 ;;
   754 ;;   None.
   755 ;;
   756 ;; Critical Paths under _main in BANK2
   757 ;;
   758 ;;   None.
   759 ;;
   760 ;; Critical Paths under _inter_func in BANK2
   761 ;;
   762 ;;   None.
   763                           
   764 ;;
   765 ;;Main: autosize = 0, tempsize = 3, incstack = 0, save=0
   766 ;;
   767                           
   768 ;;
   769 ;;Call Graph Tables:
   770 ;;
   771 ;; ---------------------------------------------------------------------------------
   772 ;; (Depth) Function   	        Calls       Base Space   Used Autos Params    Refs
   773 ;; ---------------------------------------------------------------------------------
   774 ;; (0) _main                                                 3     3      0    4132
   775 ;;                                             56 BANK0      3     3      0
   776 ;;                           _lcd_init
   777 ;;                          _uart_init
   778 ;;                   _enable_interrupt
   779 ;;                       _displayToLCD
   780 ;; ---------------------------------------------------------------------------------
   781 ;; (1) _displayToLCD                                        15     9      6    3785
   782 ;;                                             49 BANK0      7     1      6
   783 ;;                                              0 BANK1      8     8      0
   784 ;;                          _lcd_clear
   785 ;;                            _sprintf
   786 ;;                           _lcd_puts
   787 ;;                          _uart_puts
   788 ;; ---------------------------------------------------------------------------------
   789 ;; (2) _lcd_puts                                             2     0      2    1053
   790 ;;                                             25 BANK0      2     0      2
   791 ;;                           _lcd_putc
   792 ;; ---------------------------------------------------------------------------------
   793 ;; (3) _lcd_putc                                             2     2      0     988
   794 ;;                                             23 BANK0      2     2      0
   795 ;;                       _lcd_put_byte
   796 ;;                           _lcd_busy
   797 ;;                         _lcd_gotoxy
   798 ;;                            _isprint
   799 ;; ---------------------------------------------------------------------------------
   800 ;; (4) _lcd_gotoxy                                           4     3      1     449
   801 ;;                                             19 BANK0      4     3      1
   802 ;;                       _lcd_put_byte
   803 ;;                           _lcd_busy
   804 ;; ---------------------------------------------------------------------------------
   805 ;; (1) _lcd_init                                             3     3      0     347
   806 ;;                                             19 BANK0      2     2      0
   807 ;;                       _lcd_put_byte
   808 ;;                           _lcd_busy
   809 ;; ---------------------------------------------------------------------------------
   810 ;; (2) _lcd_clear                                            0     0      0     347
   811 ;;                       _lcd_put_byte
   812 ;;                           _lcd_busy
   813 ;; ---------------------------------------------------------------------------------
   814 ;; (5) _lcd_busy                                             2     2      0      34
   815 ;;                                             14 BANK0      2     2      0
   816 ;; ---------------------------------------------------------------------------------
   817 ;; (5) _lcd_put_byte                                         5     4      1     313
   818 ;;                                             14 BANK0      5     4      1
   819 ;; ---------------------------------------------------------------------------------
   820 ;; (1) _enable_interrupt                                     0     0      0       0
   821 ;;                        _set_counter
   822 ;; ---------------------------------------------------------------------------------
   823 ;; (2) _uart_puts                                            2     0      2      96
   824 ;;                                             15 BANK0      2     0      2
   825 ;;                          _uart_putc
   826 ;; ---------------------------------------------------------------------------------
   827 ;; (2) _sprintf                                             21    14      7    2029
   828 ;;                                             28 BANK0     21    14      7
   829 ;;                            _isdigit
   830 ;;                             ___wmul
   831 ;;                            ___lwdiv
   832 ;;                            ___lwmod
   833 ;; ---------------------------------------------------------------------------------
   834 ;; (3) ___lwmod                                              6     2      4     232
   835 ;;                                             22 BANK0      6     2      4
   836 ;;                            ___lwdiv (ARG)
   837 ;; ---------------------------------------------------------------------------------
   838 ;; (3) ___lwdiv                                              8     4      4     241
   839 ;;                                             14 BANK0      8     4      4
   840 ;; ---------------------------------------------------------------------------------
   841 ;; (3) ___wmul                                               6     2      4     136
   842 ;;                                             14 BANK0      6     2      4
   843 ;; ---------------------------------------------------------------------------------
   844 ;; (3) _isdigit                                              2     2      0      99
   845 ;;                                             14 BANK0      2     2      0
   846 ;; ---------------------------------------------------------------------------------
   847 ;; (3) _uart_putc                                            1     1      0      31
   848 ;;                                             14 BANK0      1     1      0
   849 ;; ---------------------------------------------------------------------------------
   850 ;; (4) _isprint                                              2     2      0      99
   851 ;;                                             14 BANK0      2     2      0
   852 ;; ---------------------------------------------------------------------------------
   853 ;; (1) _uart_init                                            0     0      0       0
   854 ;; ---------------------------------------------------------------------------------
   855 ;; (2) _set_counter                                          0     0      0       0
   856 ;; ---------------------------------------------------------------------------------
   857 ;; Estimated maximum stack depth 5
   858 ;; ---------------------------------------------------------------------------------
   859 ;; (Depth) Function   	        Calls       Base Space   Used Autos Params    Refs
   860 ;; ---------------------------------------------------------------------------------
   861 ;; (6) _inter_func                                          14    14      0    4941
   862 ;;                                              0 BANK0     14    14      0
   863 ;;                      i1_set_counter
   864 ;;                          _uart_gets
   865 ;;                             _strcmp
   866 ;;                        i1_lcd_clear
   867 ;;                        i1_uart_puts
   868 ;;                         i1_lcd_puts
   869 ;;                           i1___wmul
   870 ;; ---------------------------------------------------------------------------------
   871 ;; (7) i1_lcd_puts                                           1     1      0    2954
   872 ;;                                             11 COMMON     1     1      0
   873 ;;                         i1_lcd_putc
   874 ;; ---------------------------------------------------------------------------------
   875 ;; (8) i1_lcd_putc                                           2     2      0    2773
   876 ;;                                              9 COMMON     2     2      0
   877 ;;                     i1_lcd_put_byte
   878 ;;                         i1_lcd_busy
   879 ;;                       i1_lcd_gotoxy
   880 ;;                          i1_isprint
   881 ;; ---------------------------------------------------------------------------------
   882 ;; (7) i1_lcd_clear                                          0     0      0     978
   883 ;;                     i1_lcd_put_byte
   884 ;;                         i1_lcd_busy
   885 ;; ---------------------------------------------------------------------------------
   886 ;; (9) i1_lcd_gotoxy                                         4     3      1    1257
   887 ;;                                              5 COMMON     4     3      1
   888 ;;                     i1_lcd_put_byte
   889 ;;                         i1_lcd_busy
   890 ;; ---------------------------------------------------------------------------------
   891 ;; (7) i1_uart_puts                                          1     1      0     269
   892 ;;                                              1 COMMON     1     1      0
   893 ;;                        i1_uart_putc
   894 ;; ---------------------------------------------------------------------------------
   895 ;; (10) i1_lcd_put_byte                                      5     4      1     885
   896 ;;                                              0 COMMON     5     4      1
   897 ;; ---------------------------------------------------------------------------------
   898 ;; (10) i1_lcd_busy                                          2     2      0      93
   899 ;;                                              0 COMMON     2     2      0
   900 ;; ---------------------------------------------------------------------------------
   901 ;; (7) _uart_gets                                            3     3      0      67
   902 ;;                                              0 COMMON     2     2      0
   903 ;;                          _uart_getc
   904 ;; ---------------------------------------------------------------------------------
   905 ;; (7) i1___wmul                                             6     2      4     300
   906 ;;                                              0 COMMON     6     2      4
   907 ;; ---------------------------------------------------------------------------------
   908 ;; (9) i1_isprint                                            2     2      0     274
   909 ;;                                              0 COMMON     2     2      0
   910 ;; ---------------------------------------------------------------------------------
   911 ;; (8) i1_uart_putc                                          1     1      0      88
   912 ;;                                              0 COMMON     1     1      0
   913 ;; ---------------------------------------------------------------------------------
   914 ;; (7) i1_set_counter                                        0     0      0       0
   915 ;; ---------------------------------------------------------------------------------
   916 ;; (8) _uart_getc                                            0     0      0       0
   917 ;; ---------------------------------------------------------------------------------
   918 ;; (8) _strcmp                                               6     4      2      89
   919 ;;                                              0 COMMON     6     4      2
   920 ;; ---------------------------------------------------------------------------------
   921 ;; Estimated maximum stack depth 10
   922 ;; ---------------------------------------------------------------------------------
   923                           
   924 ;; Call Graph Graphs:
   925                           
   926 ;; _main (ROOT)
   927 ;;   _lcd_init
   928 ;;     _lcd_put_byte
   929 ;;     _lcd_busy
   930 ;;   _uart_init
   931 ;;   _enable_interrupt
   932 ;;     _set_counter
   933 ;;   _displayToLCD
   934 ;;     _lcd_clear
   935 ;;       _lcd_put_byte
   936 ;;       _lcd_busy
   937 ;;     _sprintf
   938 ;;       _isdigit
   939 ;;       ___wmul
   940 ;;       ___lwdiv
   941 ;;       ___lwmod
   942 ;;         ___lwdiv (ARG)
   943 ;;     _lcd_puts
   944 ;;       _lcd_putc
   945 ;;         _lcd_put_byte
   946 ;;         _lcd_busy
   947 ;;         _lcd_gotoxy
   948 ;;           _lcd_put_byte
   949 ;;           _lcd_busy
   950 ;;         _isprint
   951 ;;     _uart_puts
   952 ;;       _uart_putc
   953 ;;
   954 ;; _inter_func (ROOT)
   955 ;;   i1_set_counter
   956 ;;   _uart_gets
   957 ;;     _uart_getc
   958 ;;   _strcmp
   959 ;;   i1_lcd_clear
   960 ;;     i1_lcd_put_byte
   961 ;;     i1_lcd_busy
   962 ;;   i1_uart_puts
   963 ;;     i1_uart_putc
   964 ;;   i1_lcd_puts
   965 ;;     i1_lcd_putc
   966 ;;       i1_lcd_put_byte
   967 ;;       i1_lcd_busy
   968 ;;       i1_lcd_gotoxy
   969 ;;         i1_lcd_put_byte
   970 ;;         i1_lcd_busy
   971 ;;       i1_isprint
   972 ;;   i1___wmul
   973 ;;
   974                           
   975 ;; Address spaces:
   976                           
   977 ;;Name               Size   Autos  Total    Cost      Usage
   978 ;;BITCOMMON            E      0       0       0        0.0%
   979 ;;EEDATA             100      0       0       0        0.0%
   980 ;;NULL                 0      0       0       0        0.0%
   981 ;;CODE                 0      0       0       0        0.0%
   982 ;;COMMON               E      C       C       1       85.7%
   983 ;;BITSFR0              0      0       0       1        0.0%
   984 ;;SFR0                 0      0       0       1        0.0%
   985 ;;BITSFR1              0      0       0       2        0.0%
   986 ;;SFR1                 0      0       0       2        0.0%
   987 ;;STACK                0      0       F       2        0.0%
   988 ;;ABS                  0      0      55       3        0.0%
   989 ;;BITBANK0            50      0       0       4        0.0%
   990 ;;BITSFR3              0      0       0       4        0.0%
   991 ;;SFR3                 0      0       0       4        0.0%
   992 ;;BANK0               50     3B      41       5       81.3%
   993 ;;BITSFR2              0      0       0       5        0.0%
   994 ;;SFR2                 0      0       0       5        0.0%
   995 ;;BITBANK1            50      0       0       6        0.0%
   996 ;;BANK1               50      8       8       7       10.0%
   997 ;;BITBANK3            60      0       0       8        0.0%
   998 ;;BANK3               60      0       0       9        0.0%
   999 ;;BITBANK2            60      0       0      10        0.0%
  1000 ;;BANK2               60      0       0      11        0.0%
  1001 ;;DATA                 0      0      64      12        0.0%
  1002                           
  1003                           	global	_main
  1004                           psect	maintext,global,class=CODE,delta=2
  1005                           global __pmaintext
  1006  0795                     __pmaintext:
  1007                           
  1008 ;; *************** function _main *****************
  1009 ;; Defined at:
  1010 ;;		line 74 in file "Z:\Users\ittus\Studying\FU\Fall 2014\ESH201\Assignment 2\C_LCD.c"
  1011 ;; Parameters:    Size  Location     Type
  1012 ;;		None
  1013 ;; Auto vars:     Size  Location     Type
  1014 ;;		None
  1015 ;; Return value:  Size  Location     Type
  1016 ;;		None               void
  1017 ;; Registers used:
  1018 ;;		wreg, fsr0l, fsr0h, status,2, status,0, btemp+1, pclath, cstack
  1019 ;; Tracked objects:
  1020 ;;		On entry : 17F/0
  1021 ;;		On exit  : 0/0
  1022 ;;		Unchanged: 0/0
  1023 ;; Data sizes:     COMMON   BANK0   BANK1   BANK3   BANK2
  1024 ;;      Params:         0       0       0       0       0
  1025 ;;      Locals:         0       0       0       0       0
  1026 ;;      Temps:          0       3       0       0       0
  1027 ;;      Totals:         0       3       0       0       0
  1028 ;;Total ram usage:        3 bytes
  1029 ;; Hardware stack levels required when called:   10
  1030 ;; This function calls:
  1031 ;;		_lcd_init
  1032 ;;		_uart_init
  1033 ;;		_enable_interrupt
  1034 ;;		_displayToLCD
  1035 ;; This function is called by:
  1036 ;;		Startup code after reset
  1037 ;; This function uses a non-reentrant model
  1038 ;;
  1039                           psect	maintext
  1040                           	file	"Z:\Users\ittus\Studying\FU\Fall 2014\ESH201\Assignment 2\C_LCD.c"
  1041                           	line	74
  1042                           	global	__size_of_main
  1043  003D                     	__size_of_main	equ	__end_of_main-_main
  1044                           	
  1045  0795                     _main:	
  1046 ;; hardware stack exceeded
  1047                           	opt	stack 0
  1048                           ; Regs used in _main: [wreg-fsr0h+status,2+status,0+btemp+1+pclath+cstack]
  1049                           	line	75
  1050                           	
  1051  0795                     l7419:	
  1052                           ;C_LCD.c: 75: lcd_init();
  1053  0795  120A  118A  2219   	fcall	_lcd_init
              120A  118A         
  1054                           	line	76
  1055                           ;C_LCD.c: 76: uart_init();
  1056  079A  120A  158A  25FF   	fcall	_uart_init
              120A  118A         
  1057                           	line	77
  1058                           ;C_LCD.c: 77: enable_interrupt();
  1059  079F  120A  158A  25CF   	fcall	_enable_interrupt
              120A  118A         
  1060  07A4  2FA5               	goto	l7421
  1061                           	line	78
  1062                           ;C_LCD.c: 78: while(1){
  1063                           	
  1064  07A5                     l1068:	
  1065                           	line	79
  1066                           	
  1067  07A5                     l7421:	
  1068                           ;C_LCD.c: 79: displayToLCD(hour,minute,second);
  1069  07A5  1283               	bcf	status, 5	;RP0=0, select bank0
  1070  07A6  1303               	bcf	status, 6	;RP1=0, select bank0
  1071  07A7  085C               	movf	(_hour+1),w
  1072  07A8  01D2               	clrf	(?_displayToLCD+1)
  1073  07A9  07D2               	addwf	(?_displayToLCD+1)
  1074  07AA  085B               	movf	(_hour),w
  1075  07AB  01D1               	clrf	(?_displayToLCD)
  1076  07AC  07D1               	addwf	(?_displayToLCD)
  1077                           
  1078  07AD  085E               	movf	(_minute+1),w
  1079  07AE  01D4               	clrf	1+(?_displayToLCD)+02h
  1080  07AF  07D4               	addwf	1+(?_displayToLCD)+02h
  1081  07B0  085D               	movf	(_minute),w
  1082  07B1  01D3               	clrf	0+(?_displayToLCD)+02h
  1083  07B2  07D3               	addwf	0+(?_displayToLCD)+02h
  1084                           
  1085  07B3  0860               	movf	(_second+1),w
  1086  07B4  01D6               	clrf	1+(?_displayToLCD)+04h
  1087  07B5  07D6               	addwf	1+(?_displayToLCD)+04h
  1088  07B6  085F               	movf	(_second),w
  1089  07B7  01D5               	clrf	0+(?_displayToLCD)+04h
  1090  07B8  07D5               	addwf	0+(?_displayToLCD)+04h
  1091                           
  1092  07B9  120A  118A  26BB   	fcall	_displayToLCD
              120A  118A         
  1093                           	line	80
  1094                           	
  1095  07BE                     l7423:	
  1096                           ;C_LCD.c: 80: _delay((unsigned long)((500)*(4000000/4000.0)));
  1097                           	opt asmopt_off
  1098  07BE  3003               movlw  3
  1099  07BF  1283               	bcf	status, 5	;RP0=0, select bank0
  1100  07C0  1303               	bcf	status, 6	;RP1=0, select bank0
  1101  07C1  00DA               movwf	((??_main+0)+0+2),f
  1102  07C2  308A               movlw	138
  1103  07C3  00D9               movwf	((??_main+0)+0+1),f
  1104  07C4  3056               	movlw	86
  1105  07C5  00D8               movwf	((??_main+0)+0),f
  1106  07C6                     u5817:
  1107  07C6  0BD8               	decfsz	((??_main+0)+0),f
  1108  07C7  2FC6               	goto	u5817
  1109  07C8  0BD9               	decfsz	((??_main+0)+0+1),f
  1110  07C9  2FC6               	goto	u5817
  1111  07CA  0BDA               	decfsz	((??_main+0)+0+2),f
  1112  07CB  2FC6               	goto	u5817
  1113  07CC  2FCD               	nop2
  1114                           opt asmopt_on
  1115                           
  1116  07CD  2FA5               	goto	l7421
  1117                           	line	81
  1118                           	
  1119  07CE                     l1069:	
  1120                           	line	78
  1121  07CE  2FA5               	goto	l7421
  1122                           	
  1123  07CF                     l1070:	
  1124                           	line	82
  1125                           	
  1126  07CF                     l1071:	
  1127                           	global	start
  1128  07CF  120A  118A  2812   	ljmp	start
  1129                           	opt stack 0
  1130                           GLOBAL	__end_of_main
  1131  07D2                     	__end_of_main:
  1132 ;; =============== function _main ends ============
  1133                           
  1134                           	signat	_main,88
  1135                           	global	_displayToLCD
  1136                           psect	text1134,local,class=CODE,delta=2
  1137                           global __ptext1134
  1138  06BB                     __ptext1134:
  1139                           
  1140 ;; *************** function _displayToLCD *****************
  1141 ;; Defined at:
  1142 ;;		line 10 in file "Z:\Users\ittus\Studying\FU\Fall 2014\ESH201\Assignment 2\C_LCD.c"
  1143 ;; Parameters:    Size  Location     Type
  1144 ;;  h1              2   49[BANK0 ] int 
  1145 ;;  m1              2   51[BANK0 ] int 
  1146 ;;  s1              2   53[BANK0 ] int 
  1147 ;; Auto vars:     Size  Location     Type
  1148 ;;  temp            8    0[BANK1 ] unsigned char [8]
  1149 ;; Return value:  Size  Location     Type
  1150 ;;		None               void
  1151 ;; Registers used:
  1152 ;;		wreg, fsr0l, fsr0h, status,2, status,0, btemp+1, pclath, cstack
  1153 ;; Tracked objects:
  1154 ;;		On entry : 0/0
  1155 ;;		On exit  : 0/0
  1156 ;;		Unchanged: 0/0
  1157 ;; Data sizes:     COMMON   BANK0   BANK1   BANK3   BANK2
  1158 ;;      Params:         0       6       0       0       0
  1159 ;;      Locals:         0       0       8       0       0
  1160 ;;      Temps:          0       1       0       0       0
  1161 ;;      Totals:         0       7       8       0       0
  1162 ;;Total ram usage:       15 bytes
  1163 ;; Hardware stack levels used:    1
  1164 ;; Hardware stack levels required when called:    9
  1165 ;; This function calls:
  1166 ;;		_lcd_clear
  1167 ;;		_sprintf
  1168 ;;		_lcd_puts
  1169 ;;		_uart_puts
  1170 ;; This function is called by:
  1171 ;;		_main
  1172 ;; This function uses a non-reentrant model
  1173 ;;
  1174                           psect	text1134
  1175                           	file	"Z:\Users\ittus\Studying\FU\Fall 2014\ESH201\Assignment 2\C_LCD.c"
  1176                           	line	10
  1177                           	global	__size_of_displayToLCD
  1178  003A                     	__size_of_displayToLCD	equ	__end_of_displayToLCD-_displayToLCD
  1179                           	
  1180  06BB                     _displayToLCD:	
  1181 ;; hardware stack exceeded
  1182                           	opt	stack 0
  1183                           ; Regs used in _displayToLCD: [wreg-fsr0h+status,2+status,0+btemp+1+pclath+cstack]
  1184                           	line	11
  1185                           	
  1186  06BB                     l7411:	
  1187                           ;C_LCD.c: 11: lcd_clear();
  1188  06BB  120A  158A  25E6   	fcall	_lcd_clear
              120A  118A         
  1189                           	line	13
  1190                           	
  1191  06C0                     l7413:	
  1192                           ;C_LCD.c: 12: char temp[8];
  1193                           ;C_LCD.c: 13: sprintf(temp,"%02d:%02d:%02d\n",h1,m1,s1);
  1194  06C0  300B               	movlw	((STR_1-__stringbase))&0ffh
  1195  06C1  1283               	bcf	status, 5	;RP0=0, select bank0
  1196  06C2  1303               	bcf	status, 6	;RP1=0, select bank0
  1197  06C3  00D7               	movwf	(??_displayToLCD+0)+0
  1198  06C4  0857               	movf	(??_displayToLCD+0)+0,w
  1199  06C5  00BC               	movwf	(?_sprintf)
  1200  06C6  0852               	movf	(displayToLCD@h1+1),w
  1201  06C7  01BE               	clrf	1+(?_sprintf)+01h
  1202  06C8  07BE               	addwf	1+(?_sprintf)+01h
  1203  06C9  0851               	movf	(displayToLCD@h1),w
  1204  06CA  01BD               	clrf	0+(?_sprintf)+01h
  1205  06CB  07BD               	addwf	0+(?_sprintf)+01h
  1206                           
  1207  06CC  0854               	movf	(displayToLCD@m1+1),w
  1208  06CD  01C0               	clrf	1+(?_sprintf)+03h
  1209  06CE  07C0               	addwf	1+(?_sprintf)+03h
  1210  06CF  0853               	movf	(displayToLCD@m1),w
  1211  06D0  01BF               	clrf	0+(?_sprintf)+03h
  1212  06D1  07BF               	addwf	0+(?_sprintf)+03h
  1213                           
  1214  06D2  0856               	movf	(displayToLCD@s1+1),w
  1215  06D3  01C2               	clrf	1+(?_sprintf)+05h
  1216  06D4  07C2               	addwf	1+(?_sprintf)+05h
  1217  06D5  0855               	movf	(displayToLCD@s1),w
  1218  06D6  01C1               	clrf	0+(?_sprintf)+05h
  1219  06D7  07C1               	addwf	0+(?_sprintf)+05h
  1220                           
  1221  06D8  30A0               	movlw	(displayToLCD@temp)&0ffh
  1222  06D9  120A  118A  2015   	fcall	_sprintf
              120A  118A         
  1223                           	line	14
  1224                           	
  1225  06DE                     l7415:	
  1226                           ;C_LCD.c: 14: lcd_puts(temp);
  1227  06DE  30A0               	movlw	(displayToLCD@temp&0ffh)
  1228  06DF  1283               	bcf	status, 5	;RP0=0, select bank0
  1229  06E0  1303               	bcf	status, 6	;RP1=0, select bank0
  1230  06E1  00B9               	movwf	(?_lcd_puts)
  1231  06E2  3000               	movlw	(0x1/2)
  1232  06E3  00BA               	movwf	(?_lcd_puts+1)
  1233  06E4  120A  118A  27D2   	fcall	_lcd_puts
              120A  118A         
  1234                           	line	15
  1235                           	
  1236  06E9                     l7417:	
  1237                           ;C_LCD.c: 15: uart_puts(temp);
  1238  06E9  30A0               	movlw	(displayToLCD@temp&0ffh)
  1239  06EA  1283               	bcf	status, 5	;RP0=0, select bank0
  1240  06EB  1303               	bcf	status, 6	;RP1=0, select bank0
  1241  06EC  00AF               	movwf	(?_uart_puts)
  1242  06ED  3000               	movlw	(0x1/2)
  1243  06EE  00B0               	movwf	(?_uart_puts+1)
  1244  06EF  120A  158A  273F   	fcall	_uart_puts
              120A  118A         
  1245                           	line	16
  1246                           	
  1247  06F4                     l1049:	
  1248  06F4  0008               	return
  1249                           	opt stack 0
  1250                           GLOBAL	__end_of_displayToLCD
  1251  06F5                     	__end_of_displayToLCD:
  1252 ;; =============== function _displayToLCD ends ============
  1253                           
  1254                           	signat	_displayToLCD,12408
  1255                           	global	_lcd_puts
  1256                           psect	text1135,local,class=CODE,delta=2
  1257                           global __ptext1135
  1258  07D2                     __ptext1135:
  1259                           
  1260 ;; *************** function _lcd_puts *****************
  1261 ;; Defined at:
  1262 ;;		line 175 in file "Z:\Users\ittus\Studying\FU\Fall 2014\ESH201\Assignment 2\lcd.c"
  1263 ;; Parameters:    Size  Location     Type
  1264 ;;  s               2   25[BANK0 ] PTR const unsigned char 
  1265 ;;		 -> STR_4(13), displayToLCD@temp(8), 
  1266 ;; Auto vars:     Size  Location     Type
  1267 ;;		None
  1268 ;; Return value:  Size  Location     Type
  1269 ;;		None               void
  1270 ;; Registers used:
  1271 ;;		wreg, fsr0l, fsr0h, status,2, status,0, btemp+1, pclath, cstack
  1272 ;; Tracked objects:
  1273 ;;		On entry : 0/0
  1274 ;;		On exit  : 0/0
  1275 ;;		Unchanged: 0/0
  1276 ;; Data sizes:     COMMON   BANK0   BANK1   BANK3   BANK2
  1277 ;;      Params:         0       2       0       0       0
  1278 ;;      Locals:         0       0       0       0       0
  1279 ;;      Temps:          0       0       0       0       0
  1280 ;;      Totals:         0       2       0       0       0
  1281 ;;Total ram usage:        2 bytes
  1282 ;; Hardware stack levels used:    1
  1283 ;; Hardware stack levels required when called:    8
  1284 ;; This function calls:
  1285 ;;		_lcd_putc
  1286 ;; This function is called by:
  1287 ;;		_displayToLCD
  1288 ;; This function uses a non-reentrant model
  1289 ;;
  1290                           psect	text1135
  1291                           	file	"Z:\Users\ittus\Studying\FU\Fall 2014\ESH201\Assignment 2\lcd.c"
  1292                           	line	175
  1293                           	global	__size_of_lcd_puts
  1294  002C                     	__size_of_lcd_puts	equ	__end_of_lcd_puts-_lcd_puts
  1295                           	
  1296  07D2                     _lcd_puts:	
  1297 ;; hardware stack exceeded
  1298                           	opt	stack 0
  1299                           ; Regs used in _lcd_puts: [wreg-fsr0h+status,2+status,0+btemp+1+pclath+cstack]
  1300                           	line	176
  1301                           	
  1302  07D2                     l7403:	
  1303                           ;lcd.c: 176: while(*s){
  1304  07D2  2FEC               	goto	l7409
  1305                           	
  1306  07D3                     l2165:	
  1307                           	line	177
  1308                           	
  1309  07D3                     l7405:	
  1310                           ;lcd.c: 177: lcd_putc(*s++);
  1311  07D3  1283               	bcf	status, 5	;RP0=0, select bank0
  1312  07D4  1303               	bcf	status, 6	;RP1=0, select bank0
  1313  07D5  083A               	movf	(lcd_puts@s+1),w
  1314  07D6  00FF               	movwf	btemp+1
  1315  07D7  0839               	movf	(lcd_puts@s),w
  1316  07D8  0084               	movwf	fsr0
  1317  07D9  120A  118A  2700   	fcall	stringtab
              120A  118A         
  1318  07DE  120A  118A  25C1   	fcall	_lcd_putc
              120A  118A         
  1319                           	
  1320  07E3                     l7407:	
  1321  07E3  3001               	movlw	low(01h)
  1322  07E4  1283               	bcf	status, 5	;RP0=0, select bank0
  1323  07E5  1303               	bcf	status, 6	;RP1=0, select bank0
  1324  07E6  07B9               	addwf	(lcd_puts@s),f
  1325  07E7  1803               	skipnc
  1326  07E8  0ABA               	incf	(lcd_puts@s+1),f
  1327  07E9  3000               	movlw	high(01h)
  1328  07EA  07BA               	addwf	(lcd_puts@s+1),f
  1329  07EB  2FEC               	goto	l7409
  1330                           	line	178
  1331                           	
  1332  07EC                     l2164:	
  1333                           	line	176
  1334                           	
  1335  07EC                     l7409:	
  1336  07EC  1283               	bcf	status, 5	;RP0=0, select bank0
  1337  07ED  1303               	bcf	status, 6	;RP1=0, select bank0
  1338  07EE  083A               	movf	(lcd_puts@s+1),w
  1339  07EF  00FF               	movwf	btemp+1
  1340  07F0  0839               	movf	(lcd_puts@s),w
  1341  07F1  0084               	movwf	fsr0
  1342  07F2  120A  118A  2700   	fcall	stringtab
              120A  118A         
  1343  07F7  3800               	iorlw	0
  1344  07F8  1D03               	skipz
  1345  07F9  2FFB               	goto	u5801
  1346  07FA  2FFC               	goto	u5800
  1347  07FB                     u5801:
  1348  07FB  2FD3               	goto	l7405
  1349  07FC                     u5800:
  1350  07FC  2FFD               	goto	l2167
  1351                           	
  1352  07FD                     l2166:	
  1353                           	line	179
  1354                           	
  1355  07FD                     l2167:	
  1356  07FD  0008               	return
  1357                           	opt stack 0
  1358                           GLOBAL	__end_of_lcd_puts
  1359  07FE                     	__end_of_lcd_puts:
  1360 ;; =============== function _lcd_puts ends ============
  1361                           
  1362                           	signat	_lcd_puts,4216
  1363                           	global	_lcd_putc
  1364                           psect	text1136,local,class=CODE,delta=2
  1365                           global __ptext1136
  1366  05C1                     __ptext1136:
  1367                           
  1368 ;; *************** function _lcd_putc *****************
  1369 ;; Defined at:
  1370 ;;		line 143 in file "Z:\Users\ittus\Studying\FU\Fall 2014\ESH201\Assignment 2\lcd.c"
  1371 ;; Parameters:    Size  Location     Type
  1372 ;;  c               1    wreg     unsigned char 
  1373 ;; Auto vars:     Size  Location     Type
  1374 ;;  c               1   24[BANK0 ] unsigned char 
  1375 ;; Return value:  Size  Location     Type
  1376 ;;		None               void
  1377 ;; Registers used:
  1378 ;;		wreg, fsr0l, fsr0h, status,2, status,0, pclath, cstack
  1379 ;; Tracked objects:
  1380 ;;		On entry : 0/0
  1381 ;;		On exit  : 0/0
  1382 ;;		Unchanged: 0/0
  1383 ;; Data sizes:     COMMON   BANK0   BANK1   BANK3   BANK2
  1384 ;;      Params:         0       0       0       0       0
  1385 ;;      Locals:         0       1       0       0       0
  1386 ;;      Temps:          0       1       0       0       0
  1387 ;;      Totals:         0       2       0       0       0
  1388 ;;Total ram usage:        2 bytes
  1389 ;; Hardware stack levels used:    1
  1390 ;; Hardware stack levels required when called:    7
  1391 ;; This function calls:
  1392 ;;		_lcd_put_byte
  1393 ;;		_lcd_busy
  1394 ;;		_lcd_gotoxy
  1395 ;;		_isprint
  1396 ;; This function is called by:
  1397 ;;		_lcd_puts
  1398 ;; This function uses a non-reentrant model
  1399 ;;
  1400                           psect	text1136
  1401                           	file	"Z:\Users\ittus\Studying\FU\Fall 2014\ESH201\Assignment 2\lcd.c"
  1402                           	line	143
  1403                           	global	__size_of_lcd_putc
  1404  005A                     	__size_of_lcd_putc	equ	__end_of_lcd_putc-_lcd_putc
  1405                           	
  1406  05C1                     _lcd_putc:	
  1407 ;; hardware stack exceeded
  1408                           	opt	stack 0
  1409                           ; Regs used in _lcd_putc: [wreg-fsr0h+status,2+status,0+pclath+cstack]
  1410                           ;lcd_putc@c stored from wreg
  1411  05C1  1283               	bcf	status, 5	;RP0=0, select bank0
  1412  05C2  1303               	bcf	status, 6	;RP1=0, select bank0
  1413  05C3  00B8               	movwf	(lcd_putc@c)
  1414                           	line	144
  1415                           	
  1416  05C4                     l7385:	
  1417                           ;lcd.c: 144: switch(c){
  1418  05C4  2E10               	goto	l7401
  1419                           	line	145
  1420                           ;lcd.c: 145: case '\f':
  1421                           	
  1422  05C5                     l2142:	
  1423                           	line	146
  1424                           	
  1425  05C5                     l7387:	
  1426                           ;lcd.c: 146: lcd_put_byte(0, 1);
  1427  05C5  01AE               	clrf	(?_lcd_put_byte)
  1428  05C6  1403               	bsf	status,0
  1429  05C7  0DAE               	rlf	(?_lcd_put_byte),f
  1430  05C8  3000               	movlw	(0)
  1431  05C9  120A  118A  243F   	fcall	_lcd_put_byte
              120A  118A         
  1432                           	line	147
  1433                           ;lcd.c: 147: while(lcd_busy());
  1434  05CE  2DD0               	goto	l7389
  1435                           	
  1436  05CF                     l2144:	
  1437  05CF  2DD0               	goto	l7389
  1438                           	
  1439  05D0                     l2143:	
  1440                           	
  1441  05D0                     l7389:	
  1442  05D0  120A  158A  27CD   	fcall	_lcd_busy
              120A  118A         
  1443  05D5  3800               	iorlw	0
  1444  05D6  1D03               	skipz
  1445  05D7  2DD9               	goto	u5771
  1446  05D8  2DDA               	goto	u5770
  1447  05D9                     u5771:
  1448  05D9  2DD0               	goto	l7389
  1449  05DA                     u5770:
  1450  05DA  2E1A               	goto	l2153
  1451                           	
  1452  05DB                     l2145:	
  1453                           	line	148
  1454                           ;lcd.c: 148: break;
  1455  05DB  2E1A               	goto	l2153
  1456                           	line	149
  1457                           ;lcd.c: 149: case '\n':
  1458                           	
  1459  05DC                     l2147:	
  1460                           	line	150
  1461                           	
  1462  05DC                     l7391:	
  1463                           ;lcd.c: 150: lcd_gotoxy(0, 1);
  1464  05DC  1283               	bcf	status, 5	;RP0=0, select bank0
  1465  05DD  1303               	bcf	status, 6	;RP1=0, select bank0
  1466  05DE  01B3               	clrf	(?_lcd_gotoxy)
  1467  05DF  1403               	bsf	status,0
  1468  05E0  0DB3               	rlf	(?_lcd_gotoxy),f
  1469  05E1  3000               	movlw	(0)
  1470  05E2  120A  158A  26E8   	fcall	_lcd_gotoxy
              120A  118A         
  1471                           	line	151
  1472                           ;lcd.c: 151: break;
  1473  05E7  2E1A               	goto	l2153
  1474                           	line	152
  1475                           ;lcd.c: 152: default:
  1476                           	
  1477  05E8                     l2148:	
  1478                           	line	153
  1479                           	
  1480  05E8                     l7393:	
  1481                           ;lcd.c: 153: if(isprint(c)){
  1482  05E8  1283               	bcf	status, 5	;RP0=0, select bank0
  1483  05E9  1303               	bcf	status, 6	;RP1=0, select bank0
  1484  05EA  0838               	movf	(lcd_putc@c),w
  1485  05EB  120A  158A  25A1   	fcall	_isprint
              120A  118A         
  1486  05F0  1C03               	btfss	status,0
  1487  05F1  2DF3               	goto	u5781
  1488  05F2  2DF4               	goto	u5780
  1489  05F3                     u5781:
  1490  05F3  2E1A               	goto	l2153
  1491  05F4                     u5780:
  1492                           	line	154
  1493                           	
  1494  05F4                     l7395:	
  1495                           ;lcd.c: 154: lcd_put_byte(1, c);
  1496  05F4  1283               	bcf	status, 5	;RP0=0, select bank0
  1497  05F5  1303               	bcf	status, 6	;RP1=0, select bank0
  1498  05F6  0838               	movf	(lcd_putc@c),w
  1499  05F7  00B7               	movwf	(??_lcd_putc+0)+0
  1500  05F8  0837               	movf	(??_lcd_putc+0)+0,w
  1501  05F9  00AE               	movwf	(?_lcd_put_byte)
  1502  05FA  3001               	movlw	(01h)
  1503  05FB  120A  118A  243F   	fcall	_lcd_put_byte
              120A  118A         
  1504                           	line	155
  1505                           ;lcd.c: 155: while(lcd_busy());
  1506  0600  2E02               	goto	l7397
  1507                           	
  1508  0601                     l2151:	
  1509  0601  2E02               	goto	l7397
  1510                           	
  1511  0602                     l2150:	
  1512                           	
  1513  0602                     l7397:	
  1514  0602  120A  158A  27CD   	fcall	_lcd_busy
              120A  118A         
  1515  0607  3800               	iorlw	0
  1516  0608  1D03               	skipz
  1517  0609  2E0B               	goto	u5791
  1518  060A  2E0C               	goto	u5790
  1519  060B                     u5791:
  1520  060B  2E02               	goto	l7397
  1521  060C                     u5790:
  1522  060C  2E1A               	goto	l2153
  1523                           	
  1524  060D                     l2152:	
  1525  060D  2E1A               	goto	l2153
  1526                           	line	156
  1527                           	
  1528  060E                     l2149:	
  1529                           	line	157
  1530                           ;lcd.c: 156: }
  1531                           ;lcd.c: 157: break;
  1532  060E  2E1A               	goto	l2153
  1533                           	line	158
  1534                           	
  1535  060F                     l7399:	
  1536                           ;lcd.c: 158: }
  1537  060F  2E1A               	goto	l2153
  1538                           	line	144
  1539                           	
  1540  0610                     l2141:	
  1541                           	
  1542  0610                     l7401:	
  1543  0610  1283               	bcf	status, 5	;RP0=0, select bank0
  1544  0611  1303               	bcf	status, 6	;RP1=0, select bank0
  1545  0612  0838               	movf	(lcd_putc@c),w
  1546                           	; Switch size 1, requested type "space"
  1547                           ; Number of cases is 2, Range of values is 10 to 12
  1548                           ; switch strategies available:
  1549                           ; Name         Instructions Cycles
  1550                           ; simple_byte            7     4 (average)
  1551                           ; direct_byte           20    11 (fixed)
  1552                           ; jumptable            263     9 (fixed)
  1553                           ;	Chosen strategy is simple_byte
  1554                           
  1555                           	opt asmopt_off
  1556  0613  3A0A               	xorlw	10^0	; case 10
  1557  0614  1903               	skipnz
  1558  0615  2DDC               	goto	l7391
  1559  0616  3A06               	xorlw	12^10	; case 12
  1560  0617  1903               	skipnz
  1561  0618  2DC5               	goto	l7387
  1562  0619  2DE8               	goto	l7393
  1563                           	opt asmopt_on
  1564                           
  1565                           	line	158
  1566                           	
  1567  061A                     l2146:	
  1568                           	line	159
  1569                           	
  1570  061A                     l2153:	
  1571  061A  0008               	return
  1572                           	opt stack 0
  1573                           GLOBAL	__end_of_lcd_putc
  1574  061B                     	__end_of_lcd_putc:
  1575 ;; =============== function _lcd_putc ends ============
  1576                           
  1577                           	signat	_lcd_putc,4216
  1578                           	global	_lcd_gotoxy
  1579                           psect	text1137,local,class=CODE,delta=2
  1580                           global __ptext1137
  1581  0EE8                     __ptext1137:
  1582                           
  1583 ;; *************** function _lcd_gotoxy *****************
  1584 ;; Defined at:
  1585 ;;		line 162 in file "Z:\Users\ittus\Studying\FU\Fall 2014\ESH201\Assignment 2\lcd.c"
  1586 ;; Parameters:    Size  Location     Type
  1587 ;;  col             1    wreg     unsigned char 
  1588 ;;  row             1   19[BANK0 ] unsigned char 
  1589 ;; Auto vars:     Size  Location     Type
  1590 ;;  col             1   21[BANK0 ] unsigned char 
  1591 ;;  address         1   22[BANK0 ] unsigned char 
  1592 ;; Return value:  Size  Location     Type
  1593 ;;		None               void
  1594 ;; Registers used:
  1595 ;;		wreg, status,2, status,0, pclath, cstack
  1596 ;; Tracked objects:
  1597 ;;		On entry : 0/0
  1598 ;;		On exit  : 0/0
  1599 ;;		Unchanged: 0/0
  1600 ;; Data sizes:     COMMON   BANK0   BANK1   BANK3   BANK2
  1601 ;;      Params:         0       1       0       0       0
  1602 ;;      Locals:         0       2       0       0       0
  1603 ;;      Temps:          0       1       0       0       0
  1604 ;;      Totals:         0       4       0       0       0
  1605 ;;Total ram usage:        4 bytes
  1606 ;; Hardware stack levels used:    1
  1607 ;; Hardware stack levels required when called:    6
  1608 ;; This function calls:
  1609 ;;		_lcd_put_byte
  1610 ;;		_lcd_busy
  1611 ;; This function is called by:
  1612 ;;		_lcd_putc
  1613 ;; This function uses a non-reentrant model
  1614 ;;
  1615                           psect	text1137
  1616                           	file	"Z:\Users\ittus\Studying\FU\Fall 2014\ESH201\Assignment 2\lcd.c"
  1617                           	line	162
  1618                           	global	__size_of_lcd_gotoxy
  1619  002B                     	__size_of_lcd_gotoxy	equ	__end_of_lcd_gotoxy-_lcd_gotoxy
  1620                           	
  1621  0EE8                     _lcd_gotoxy:	
  1622 ;; hardware stack exceeded
  1623                           	opt	stack 0
  1624                           ; Regs used in _lcd_gotoxy: [wreg+status,2+status,0+pclath+cstack]
  1625                           ;lcd_gotoxy@col stored from wreg
  1626                           	line	165
  1627  0EE8  1283               	bcf	status, 5	;RP0=0, select bank0
  1628  0EE9  1303               	bcf	status, 6	;RP1=0, select bank0
  1629  0EEA  00B5               	movwf	(lcd_gotoxy@col)
  1630                           	
  1631  0EEB                     l7375:	
  1632                           ;lcd.c: 163: unsigned char address;
  1633                           ;lcd.c: 165: if(row!=0)
  1634  0EEB  0833               	movf	(lcd_gotoxy@row),w
  1635  0EEC  1D03               	skipz
  1636  0EED  2EEF               	goto	u5750
  1637  0EEE  2EF4               	goto	l2156
  1638  0EEF                     u5750:
  1639                           	line	166
  1640                           	
  1641  0EEF                     l7377:	
  1642                           ;lcd.c: 166: address=0x40;
  1643  0EEF  3040               	movlw	(040h)
  1644  0EF0  00B4               	movwf	(??_lcd_gotoxy+0)+0
  1645  0EF1  0834               	movf	(??_lcd_gotoxy+0)+0,w
  1646  0EF2  00B6               	movwf	(lcd_gotoxy@address)
  1647  0EF3  2EF6               	goto	l7379
  1648                           	line	167
  1649                           	
  1650  0EF4                     l2156:	
  1651                           	line	168
  1652                           ;lcd.c: 167: else
  1653                           ;lcd.c: 168: address=0;
  1654  0EF4  01B6               	clrf	(lcd_gotoxy@address)
  1655  0EF5  2EF6               	goto	l7379
  1656                           	
  1657  0EF6                     l2157:	
  1658                           	line	170
  1659                           	
  1660  0EF6                     l7379:	
  1661                           ;lcd.c: 170: address += col;
  1662  0EF6  0835               	movf	(lcd_gotoxy@col),w
  1663  0EF7  00B4               	movwf	(??_lcd_gotoxy+0)+0
  1664  0EF8  0834               	movf	(??_lcd_gotoxy+0)+0,w
  1665  0EF9  07B6               	addwf	(lcd_gotoxy@address),f
  1666                           	line	171
  1667                           	
  1668  0EFA                     l7381:	
  1669                           ;lcd.c: 171: lcd_put_byte(0,0x80|address);
  1670  0EFA  0836               	movf	(lcd_gotoxy@address),w
  1671  0EFB  3880               	iorlw	080h
  1672  0EFC  00B4               	movwf	(??_lcd_gotoxy+0)+0
  1673  0EFD  0834               	movf	(??_lcd_gotoxy+0)+0,w
  1674  0EFE  00AE               	movwf	(?_lcd_put_byte)
  1675  0EFF  3000               	movlw	(0)
  1676  0F00  120A  118A  243F   	fcall	_lcd_put_byte
              120A  158A         
  1677                           	line	172
  1678                           ;lcd.c: 172: while(lcd_busy());
  1679  0F05  2F07               	goto	l7383
  1680                           	
  1681  0F06                     l2159:	
  1682  0F06  2F07               	goto	l7383
  1683                           	
  1684  0F07                     l2158:	
  1685                           	
  1686  0F07                     l7383:	
  1687  0F07  120A  158A  27CD   	fcall	_lcd_busy
              120A  158A         
  1688  0F0C  3800               	iorlw	0
  1689  0F0D  1D03               	skipz
  1690  0F0E  2F10               	goto	u5761
  1691  0F0F  2F11               	goto	u5760
  1692  0F10                     u5761:
  1693  0F10  2F07               	goto	l7383
  1694  0F11                     u5760:
  1695  0F11  2F12               	goto	l2161
  1696                           	
  1697  0F12                     l2160:	
  1698                           	line	173
  1699                           	
  1700  0F12                     l2161:	
  1701  0F12  0008               	return
  1702                           	opt stack 0
  1703                           GLOBAL	__end_of_lcd_gotoxy
  1704  0F13                     	__end_of_lcd_gotoxy:
  1705 ;; =============== function _lcd_gotoxy ends ============
  1706                           
  1707                           	signat	_lcd_gotoxy,8312
  1708                           	global	_lcd_init
  1709                           psect	text1138,local,class=CODE,delta=2
  1710                           global __ptext1138
  1711  0219                     __ptext1138:
  1712                           
  1713 ;; *************** function _lcd_init *****************
  1714 ;; Defined at:
  1715 ;;		line 5 in file "Z:\Users\ittus\Studying\FU\Fall 2014\ESH201\Assignment 2\lcd.c"
  1716 ;; Parameters:    Size  Location     Type
  1717 ;;		None
  1718 ;; Auto vars:     Size  Location     Type
  1719 ;;  i               1    0        unsigned char 
  1720 ;; Return value:  Size  Location     Type
  1721 ;;		None               void
  1722 ;; Registers used:
  1723 ;;		wreg, status,2, status,0, pclath, cstack
  1724 ;; Tracked objects:
  1725 ;;		On entry : 0/0
  1726 ;;		On exit  : 0/0
  1727 ;;		Unchanged: 0/0
  1728 ;; Data sizes:     COMMON   BANK0   BANK1   BANK3   BANK2
  1729 ;;      Params:         0       0       0       0       0
  1730 ;;      Locals:         0       0       0       0       0
  1731 ;;      Temps:          0       2       0       0       0
  1732 ;;      Totals:         0       2       0       0       0
  1733 ;;Total ram usage:        2 bytes
  1734 ;; Hardware stack levels used:    1
  1735 ;; Hardware stack levels required when called:    6
  1736 ;; This function calls:
  1737 ;;		_lcd_put_byte
  1738 ;;		_lcd_busy
  1739 ;; This function is called by:
  1740 ;;		_main
  1741 ;; This function uses a non-reentrant model
  1742 ;;
  1743                           psect	text1138
  1744                           	file	"Z:\Users\ittus\Studying\FU\Fall 2014\ESH201\Assignment 2\lcd.c"
  1745                           	line	5
  1746                           	global	__size_of_lcd_init
  1747  0114                     	__size_of_lcd_init	equ	__end_of_lcd_init-_lcd_init
  1748                           	
  1749  0219                     _lcd_init:	
  1750                           	opt	stack 1
  1751                           ; Regs used in _lcd_init: [wreg+status,2+status,0+pclath+cstack]
  1752                           	line	7
  1753                           	
  1754  0219                     l7337:	
  1755                           ;lcd.c: 6: unsigned char i;
  1756                           ;lcd.c: 7: TRISD3 = 0;
  1757  0219  1683               	bsf	status, 5	;RP0=1, select bank1
  1758  021A  1303               	bcf	status, 6	;RP1=0, select bank1
  1759  021B  1188               	bcf	(1091/8)^080h,(1091)&7
  1760                           	line	8
  1761                           ;lcd.c: 8: TRISD1 = 0;
  1762  021C  1088               	bcf	(1089/8)^080h,(1089)&7
  1763                           	line	9
  1764                           ;lcd.c: 9: TRISD2 = 0;
  1765  021D  1108               	bcf	(1090/8)^080h,(1090)&7
  1766                           	line	10
  1767                           ;lcd.c: 10: TRISD4 = 0;
  1768  021E  1208               	bcf	(1092/8)^080h,(1092)&7
  1769                           	line	11
  1770                           ;lcd.c: 11: TRISD5 = 0;
  1771  021F  1288               	bcf	(1093/8)^080h,(1093)&7
  1772                           	line	12
  1773                           ;lcd.c: 12: TRISD6 = 0;
  1774  0220  1308               	bcf	(1094/8)^080h,(1094)&7
  1775                           	line	13
  1776                           ;lcd.c: 13: TRISD7 = 0;
  1777  0221  1388               	bcf	(1095/8)^080h,(1095)&7
  1778                           	line	14
  1779                           ;lcd.c: 14: RD3 = 0;
  1780  0222  1283               	bcf	status, 5	;RP0=0, select bank0
  1781  0223  1303               	bcf	status, 6	;RP1=0, select bank0
  1782  0224  1188               	bcf	(67/8),(67)&7
  1783                           	line	15
  1784                           ;lcd.c: 15: RD1 = 0;
  1785  0225  1088               	bcf	(65/8),(65)&7
  1786                           	line	16
  1787                           ;lcd.c: 16: RD2 = 0;
  1788  0226  1108               	bcf	(66/8),(66)&7
  1789                           	line	18
  1790                           	
  1791  0227                     l7339:	
  1792                           ;lcd.c: 18: _delay((unsigned long)((100)*(4000000/4000.0)));
  1793                           	opt asmopt_off
  1794  0227  3082               movlw	130
  1795  0228  00B4               movwf	((??_lcd_init+0)+0+1),f
  1796  0229  30DD               	movlw	221
  1797  022A  00B3               movwf	((??_lcd_init+0)+0),f
  1798  022B                     u5827:
  1799  022B  0BB3               	decfsz	((??_lcd_init+0)+0),f
  1800  022C  2A2B               	goto	u5827
  1801  022D  0BB4               	decfsz	((??_lcd_init+0)+0+1),f
  1802  022E  2A2B               	goto	u5827
  1803  022F  2A30               	nop2
  1804                           opt asmopt_on
  1805                           
  1806                           	line	21
  1807                           	
  1808  0230                     l7341:	
  1809                           ;lcd.c: 21: lcd_put_byte(0,0x30);
  1810  0230  3030               	movlw	(030h)
  1811  0231  1283               	bcf	status, 5	;RP0=0, select bank0
  1812  0232  1303               	bcf	status, 6	;RP1=0, select bank0
  1813  0233  00B3               	movwf	(??_lcd_init+0)+0
  1814  0234  0833               	movf	(??_lcd_init+0)+0,w
  1815  0235  00AE               	movwf	(?_lcd_put_byte)
  1816  0236  3000               	movlw	(0)
  1817  0237  120A  118A  243F   	fcall	_lcd_put_byte
              120A  118A         
  1818                           	line	22
  1819                           	
  1820  023C                     l7343:	
  1821                           ;lcd.c: 22: _delay((unsigned long)((100)*(4000000/4000.0)));
  1822                           	opt asmopt_off
  1823  023C  3082               movlw	130
  1824  023D  1283               	bcf	status, 5	;RP0=0, select bank0
  1825  023E  1303               	bcf	status, 6	;RP1=0, select bank0
  1826  023F  00B4               movwf	((??_lcd_init+0)+0+1),f
  1827  0240  30DD               	movlw	221
  1828  0241  00B3               movwf	((??_lcd_init+0)+0),f
  1829  0242                     u5837:
  1830  0242  0BB3               	decfsz	((??_lcd_init+0)+0),f
  1831  0243  2A42               	goto	u5837
  1832  0244  0BB4               	decfsz	((??_lcd_init+0)+0+1),f
  1833  0245  2A42               	goto	u5837
  1834  0246  2A47               	nop2
  1835                           opt asmopt_on
  1836                           
  1837                           	line	23
  1838                           ;lcd.c: 23: lcd_put_byte(0,0x30);
  1839  0247  3030               	movlw	(030h)
  1840  0248  1283               	bcf	status, 5	;RP0=0, select bank0
  1841  0249  1303               	bcf	status, 6	;RP1=0, select bank0
  1842  024A  00B3               	movwf	(??_lcd_init+0)+0
  1843  024B  0833               	movf	(??_lcd_init+0)+0,w
  1844  024C  00AE               	movwf	(?_lcd_put_byte)
  1845  024D  3000               	movlw	(0)
  1846  024E  120A  118A  243F   	fcall	_lcd_put_byte
              120A  118A         
  1847                           	line	24
  1848                           	
  1849  0253                     l7345:	
  1850                           ;lcd.c: 24: _delay((unsigned long)((100)*(4000000/4000.0)));
  1851                           	opt asmopt_off
  1852  0253  3082               movlw	130
  1853  0254  1283               	bcf	status, 5	;RP0=0, select bank0
  1854  0255  1303               	bcf	status, 6	;RP1=0, select bank0
  1855  0256  00B4               movwf	((??_lcd_init+0)+0+1),f
  1856  0257  30DD               	movlw	221
  1857  0258  00B3               movwf	((??_lcd_init+0)+0),f
  1858  0259                     u5847:
  1859  0259  0BB3               	decfsz	((??_lcd_init+0)+0),f
  1860  025A  2A59               	goto	u5847
  1861  025B  0BB4               	decfsz	((??_lcd_init+0)+0+1),f
  1862  025C  2A59               	goto	u5847
  1863  025D  2A5E               	nop2
  1864                           opt asmopt_on
  1865                           
  1866                           	line	25
  1867                           	
  1868  025E                     l7347:	
  1869                           ;lcd.c: 25: lcd_put_byte(0,0x32);
  1870  025E  3032               	movlw	(032h)
  1871  025F  1283               	bcf	status, 5	;RP0=0, select bank0
  1872  0260  1303               	bcf	status, 6	;RP1=0, select bank0
  1873  0261  00B3               	movwf	(??_lcd_init+0)+0
  1874  0262  0833               	movf	(??_lcd_init+0)+0,w
  1875  0263  00AE               	movwf	(?_lcd_put_byte)
  1876  0264  3000               	movlw	(0)
  1877  0265  120A  118A  243F   	fcall	_lcd_put_byte
              120A  118A         
  1878                           	line	26
  1879                           ;lcd.c: 26: _delay((unsigned long)((100)*(4000000/4000.0)));
  1880                           	opt asmopt_off
  1881  026A  3082               movlw	130
  1882  026B  1283               	bcf	status, 5	;RP0=0, select bank0
  1883  026C  1303               	bcf	status, 6	;RP1=0, select bank0
  1884  026D  00B4               movwf	((??_lcd_init+0)+0+1),f
  1885  026E  30DD               	movlw	221
  1886  026F  00B3               movwf	((??_lcd_init+0)+0),f
  1887  0270                     u5857:
  1888  0270  0BB3               	decfsz	((??_lcd_init+0)+0),f
  1889  0271  2A70               	goto	u5857
  1890  0272  0BB4               	decfsz	((??_lcd_init+0)+0+1),f
  1891  0273  2A70               	goto	u5857
  1892  0274  2A75               	nop2
  1893                           opt asmopt_on
  1894                           
  1895                           	line	27
  1896                           ;lcd.c: 27: _delay((unsigned long)((100)*(4000000/4000.0)));
  1897                           	opt asmopt_off
  1898  0275  3082               movlw	130
  1899  0276  1283               	bcf	status, 5	;RP0=0, select bank0
  1900  0277  1303               	bcf	status, 6	;RP1=0, select bank0
  1901  0278  00B4               movwf	((??_lcd_init+0)+0+1),f
  1902  0279  30DD               	movlw	221
  1903  027A  00B3               movwf	((??_lcd_init+0)+0),f
  1904  027B                     u5867:
  1905  027B  0BB3               	decfsz	((??_lcd_init+0)+0),f
  1906  027C  2A7B               	goto	u5867
  1907  027D  0BB4               	decfsz	((??_lcd_init+0)+0+1),f
  1908  027E  2A7B               	goto	u5867
  1909  027F  2A80               	nop2
  1910                           opt asmopt_on
  1911                           
  1912                           	line	28
  1913                           ;lcd.c: 28: _delay((unsigned long)((100)*(4000000/4000.0)));
  1914                           	opt asmopt_off
  1915  0280  3082               movlw	130
  1916  0281  1283               	bcf	status, 5	;RP0=0, select bank0
  1917  0282  1303               	bcf	status, 6	;RP1=0, select bank0
  1918  0283  00B4               movwf	((??_lcd_init+0)+0+1),f
  1919  0284  30DD               	movlw	221
  1920  0285  00B3               movwf	((??_lcd_init+0)+0),f
  1921  0286                     u5877:
  1922  0286  0BB3               	decfsz	((??_lcd_init+0)+0),f
  1923  0287  2A86               	goto	u5877
  1924  0288  0BB4               	decfsz	((??_lcd_init+0)+0+1),f
  1925  0289  2A86               	goto	u5877
  1926  028A  2A8B               	nop2
  1927                           opt asmopt_on
  1928                           
  1929                           	line	30
  1930                           ;lcd.c: 30: while(lcd_busy());
  1931  028B  2A8D               	goto	l7349
  1932                           	
  1933  028C                     l2107:	
  1934  028C  2A8D               	goto	l7349
  1935                           	
  1936  028D                     l2106:	
  1937                           	
  1938  028D                     l7349:	
  1939  028D  120A  158A  27CD   	fcall	_lcd_busy
              120A  118A         
  1940  0292  3800               	iorlw	0
  1941  0293  1D03               	skipz
  1942  0294  2A96               	goto	u5681
  1943  0295  2A97               	goto	u5680
  1944  0296                     u5681:
  1945  0296  2A8D               	goto	l7349
  1946  0297                     u5680:
  1947  0297  2A98               	goto	l7351
  1948                           	
  1949  0298                     l2108:	
  1950                           	line	31
  1951                           	
  1952  0298                     l7351:	
  1953                           ;lcd.c: 31: lcd_put_byte(0,0b00101100 & 0b00111000);
  1954  0298  3028               	movlw	(028h)
  1955  0299  1283               	bcf	status, 5	;RP0=0, select bank0
  1956  029A  1303               	bcf	status, 6	;RP1=0, select bank0
  1957  029B  00B3               	movwf	(??_lcd_init+0)+0
  1958  029C  0833               	movf	(??_lcd_init+0)+0,w
  1959  029D  00AE               	movwf	(?_lcd_put_byte)
  1960  029E  3000               	movlw	(0)
  1961  029F  120A  118A  243F   	fcall	_lcd_put_byte
              120A  118A         
  1962                           	line	32
  1963                           ;lcd.c: 32: while(lcd_busy());
  1964  02A4  2AA6               	goto	l7353
  1965                           	
  1966  02A5                     l2110:	
  1967  02A5  2AA6               	goto	l7353
  1968                           	
  1969  02A6                     l2109:	
  1970                           	
  1971  02A6                     l7353:	
  1972  02A6  120A  158A  27CD   	fcall	_lcd_busy
              120A  118A         
  1973  02AB  3800               	iorlw	0
  1974  02AC  1D03               	skipz
  1975  02AD  2AAF               	goto	u5691
  1976  02AE  2AB0               	goto	u5690
  1977  02AF                     u5691:
  1978  02AF  2AA6               	goto	l7353
  1979  02B0                     u5690:
  1980  02B0  2AB1               	goto	l7355
  1981                           	
  1982  02B1                     l2111:	
  1983                           	line	34
  1984                           	
  1985  02B1                     l7355:	
  1986                           ;lcd.c: 34: lcd_put_byte(0,0b00001011&0b00001101&0b00001110);
  1987  02B1  3008               	movlw	(08h)
  1988  02B2  1283               	bcf	status, 5	;RP0=0, select bank0
  1989  02B3  1303               	bcf	status, 6	;RP1=0, select bank0
  1990  02B4  00B3               	movwf	(??_lcd_init+0)+0
  1991  02B5  0833               	movf	(??_lcd_init+0)+0,w
  1992  02B6  00AE               	movwf	(?_lcd_put_byte)
  1993  02B7  3000               	movlw	(0)
  1994  02B8  120A  118A  243F   	fcall	_lcd_put_byte
              120A  118A         
  1995                           	line	35
  1996                           ;lcd.c: 35: while(lcd_busy());
  1997  02BD  2ABF               	goto	l7357
  1998                           	
  1999  02BE                     l2113:	
  2000  02BE  2ABF               	goto	l7357
  2001                           	
  2002  02BF                     l2112:	
  2003                           	
  2004  02BF                     l7357:	
  2005  02BF  120A  158A  27CD   	fcall	_lcd_busy
              120A  118A         
  2006  02C4  3800               	iorlw	0
  2007  02C5  1D03               	skipz
  2008  02C6  2AC8               	goto	u5701
  2009  02C7  2AC9               	goto	u5700
  2010  02C8                     u5701:
  2011  02C8  2ABF               	goto	l7357
  2012  02C9                     u5700:
  2013  02C9  2ACA               	goto	l7359
  2014                           	
  2015  02CA                     l2114:	
  2016                           	line	36
  2017                           	
  2018  02CA                     l7359:	
  2019                           ;lcd.c: 36: lcd_put_byte(0,0b00001111&0b00001101&0b00001110);
  2020  02CA  300C               	movlw	(0Ch)
  2021  02CB  1283               	bcf	status, 5	;RP0=0, select bank0
  2022  02CC  1303               	bcf	status, 6	;RP1=0, select bank0
  2023  02CD  00B3               	movwf	(??_lcd_init+0)+0
  2024  02CE  0833               	movf	(??_lcd_init+0)+0,w
  2025  02CF  00AE               	movwf	(?_lcd_put_byte)
  2026  02D0  3000               	movlw	(0)
  2027  02D1  120A  118A  243F   	fcall	_lcd_put_byte
              120A  118A         
  2028                           	line	37
  2029                           ;lcd.c: 37: while(lcd_busy());
  2030  02D6  2AD8               	goto	l7361
  2031                           	
  2032  02D7                     l2116:	
  2033  02D7  2AD8               	goto	l7361
  2034                           	
  2035  02D8                     l2115:	
  2036                           	
  2037  02D8                     l7361:	
  2038  02D8  120A  158A  27CD   	fcall	_lcd_busy
              120A  118A         
  2039  02DD  3800               	iorlw	0
  2040  02DE  1D03               	skipz
  2041  02DF  2AE1               	goto	u5711
  2042  02E0  2AE2               	goto	u5710
  2043  02E1                     u5711:
  2044  02E1  2AD8               	goto	l7361
  2045  02E2                     u5710:
  2046  02E2  2AE3               	goto	l7363
  2047                           	
  2048  02E3                     l2117:	
  2049                           	line	39
  2050                           	
  2051  02E3                     l7363:	
  2052                           ;lcd.c: 39: lcd_put_byte(0,0x01);
  2053  02E3  1283               	bcf	status, 5	;RP0=0, select bank0
  2054  02E4  1303               	bcf	status, 6	;RP1=0, select bank0
  2055  02E5  01AE               	clrf	(?_lcd_put_byte)
  2056  02E6  1403               	bsf	status,0
  2057  02E7  0DAE               	rlf	(?_lcd_put_byte),f
  2058  02E8  3000               	movlw	(0)
  2059  02E9  120A  118A  243F   	fcall	_lcd_put_byte
              120A  118A         
  2060                           	line	40
  2061                           ;lcd.c: 40: while(lcd_busy());
  2062  02EE  2AF0               	goto	l7365
  2063                           	
  2064  02EF                     l2119:	
  2065  02EF  2AF0               	goto	l7365
  2066                           	
  2067  02F0                     l2118:	
  2068                           	
  2069  02F0                     l7365:	
  2070  02F0  120A  158A  27CD   	fcall	_lcd_busy
              120A  118A         
  2071  02F5  3800               	iorlw	0
  2072  02F6  1D03               	skipz
  2073  02F7  2AF9               	goto	u5721
  2074  02F8  2AFA               	goto	u5720
  2075  02F9                     u5721:
  2076  02F9  2AF0               	goto	l7365
  2077  02FA                     u5720:
  2078  02FA  2AFB               	goto	l7367
  2079                           	
  2080  02FB                     l2120:	
  2081                           	line	41
  2082                           	
  2083  02FB                     l7367:	
  2084                           ;lcd.c: 41: lcd_put_byte(0,0b00000100);
  2085  02FB  3004               	movlw	(04h)
  2086  02FC  1283               	bcf	status, 5	;RP0=0, select bank0
  2087  02FD  1303               	bcf	status, 6	;RP1=0, select bank0
  2088  02FE  00B3               	movwf	(??_lcd_init+0)+0
  2089  02FF  0833               	movf	(??_lcd_init+0)+0,w
  2090  0300  00AE               	movwf	(?_lcd_put_byte)
  2091  0301  3000               	movlw	(0)
  2092  0302  120A  118A  243F   	fcall	_lcd_put_byte
              120A  118A         
  2093                           	line	42
  2094                           ;lcd.c: 42: while(lcd_busy());
  2095  0307  2B09               	goto	l7369
  2096                           	
  2097  0308                     l2122:	
  2098  0308  2B09               	goto	l7369
  2099                           	
  2100  0309                     l2121:	
  2101                           	
  2102  0309                     l7369:	
  2103  0309  120A  158A  27CD   	fcall	_lcd_busy
              120A  118A         
  2104  030E  3800               	iorlw	0
  2105  030F  1D03               	skipz
  2106  0310  2B12               	goto	u5731
  2107  0311  2B13               	goto	u5730
  2108  0312                     u5731:
  2109  0312  2B09               	goto	l7369
  2110  0313                     u5730:
  2111  0313  2B14               	goto	l7371
  2112                           	
  2113  0314                     l2123:	
  2114                           	line	43
  2115                           	
  2116  0314                     l7371:	
  2117                           ;lcd.c: 43: lcd_put_byte(0,0x01);
  2118  0314  1283               	bcf	status, 5	;RP0=0, select bank0
  2119  0315  1303               	bcf	status, 6	;RP1=0, select bank0
  2120  0316  01AE               	clrf	(?_lcd_put_byte)
  2121  0317  1403               	bsf	status,0
  2122  0318  0DAE               	rlf	(?_lcd_put_byte),f
  2123  0319  3000               	movlw	(0)
  2124  031A  120A  118A  243F   	fcall	_lcd_put_byte
              120A  118A         
  2125                           	line	44
  2126                           ;lcd.c: 44: while(lcd_busy());
  2127  031F  2B21               	goto	l7373
  2128                           	
  2129  0320                     l2125:	
  2130  0320  2B21               	goto	l7373
  2131                           	
  2132  0321                     l2124:	
  2133                           	
  2134  0321                     l7373:	
  2135  0321  120A  158A  27CD   	fcall	_lcd_busy
              120A  118A         
  2136  0326  3800               	iorlw	0
  2137  0327  1D03               	skipz
  2138  0328  2B2A               	goto	u5741
  2139  0329  2B2B               	goto	u5740
  2140  032A                     u5741:
  2141  032A  2B21               	goto	l7373
  2142  032B                     u5740:
  2143  032B  2B2C               	goto	l2127
  2144                           	
  2145  032C                     l2126:	
  2146                           	line	45
  2147                           	
  2148  032C                     l2127:	
  2149  032C  0008               	return
  2150                           	opt stack 0
  2151                           GLOBAL	__end_of_lcd_init
  2152  032D                     	__end_of_lcd_init:
  2153 ;; =============== function _lcd_init ends ============
  2154                           
  2155                           	signat	_lcd_init,88
  2156                           	global	_lcd_clear
  2157                           psect	text1139,local,class=CODE,delta=2
  2158                           global __ptext1139
  2159  0DE6                     __ptext1139:
  2160                           
  2161 ;; *************** function _lcd_clear *****************
  2162 ;; Defined at:
  2163 ;;		line 182 in file "Z:\Users\ittus\Studying\FU\Fall 2014\ESH201\Assignment 2\lcd.c"
  2164 ;; Parameters:    Size  Location     Type
  2165 ;;		None
  2166 ;; Auto vars:     Size  Location     Type
  2167 ;;		None
  2168 ;; Return value:  Size  Location     Type
  2169 ;;		None               void
  2170 ;; Registers used:
  2171 ;;		wreg, status,2, status,0, pclath, cstack
  2172 ;; Tracked objects:
  2173 ;;		On entry : 0/0
  2174 ;;		On exit  : 0/0
  2175 ;;		Unchanged: 0/0
  2176 ;; Data sizes:     COMMON   BANK0   BANK1   BANK3   BANK2
  2177 ;;      Params:         0       0       0       0       0
  2178 ;;      Locals:         0       0       0       0       0
  2179 ;;      Temps:          0       0       0       0       0
  2180 ;;      Totals:         0       0       0       0       0
  2181 ;;Total ram usage:        0 bytes
  2182 ;; Hardware stack levels used:    1
  2183 ;; Hardware stack levels required when called:    6
  2184 ;; This function calls:
  2185 ;;		_lcd_put_byte
  2186 ;;		_lcd_busy
  2187 ;; This function is called by:
  2188 ;;		_displayToLCD
  2189 ;; This function uses a non-reentrant model
  2190 ;;
  2191                           psect	text1139
  2192                           	file	"Z:\Users\ittus\Studying\FU\Fall 2014\ESH201\Assignment 2\lcd.c"
  2193                           	line	182
  2194                           	global	__size_of_lcd_clear
  2195  0019                     	__size_of_lcd_clear	equ	__end_of_lcd_clear-_lcd_clear
  2196                           	
  2197  0DE6                     _lcd_clear:	
  2198                           	opt	stack 0
  2199                           ; Regs used in _lcd_clear: [wreg+status,2+status,0+pclath+cstack]
  2200                           	line	183
  2201                           	
  2202  0DE6                     l7333:	
  2203                           ;lcd.c: 183: lcd_put_byte(0,0x01);
  2204  0DE6  1283               	bcf	status, 5	;RP0=0, select bank0
  2205  0DE7  1303               	bcf	status, 6	;RP1=0, select bank0
  2206  0DE8  01AE               	clrf	(?_lcd_put_byte)
  2207  0DE9  1403               	bsf	status,0
  2208  0DEA  0DAE               	rlf	(?_lcd_put_byte),f
  2209  0DEB  3000               	movlw	(0)
  2210  0DEC  120A  118A  243F   	fcall	_lcd_put_byte
              120A  158A         
  2211                           	line	184
  2212                           ;lcd.c: 184: while(lcd_busy());
  2213  0DF1  2DF3               	goto	l7335
  2214                           	
  2215  0DF2                     l2171:	
  2216  0DF2  2DF3               	goto	l7335
  2217                           	
  2218  0DF3                     l2170:	
  2219                           	
  2220  0DF3                     l7335:	
  2221  0DF3  120A  158A  27CD   	fcall	_lcd_busy
              120A  158A         
  2222  0DF8  3800               	iorlw	0
  2223  0DF9  1D03               	skipz
  2224  0DFA  2DFC               	goto	u5671
  2225  0DFB  2DFD               	goto	u5670
  2226  0DFC                     u5671:
  2227  0DFC  2DF3               	goto	l7335
  2228  0DFD                     u5670:
  2229  0DFD  2DFE               	goto	l2173
  2230                           	
  2231  0DFE                     l2172:	
  2232                           	line	185
  2233                           	
  2234  0DFE                     l2173:	
  2235  0DFE  0008               	return
  2236                           	opt stack 0
  2237                           GLOBAL	__end_of_lcd_clear
  2238  0DFF                     	__end_of_lcd_clear:
  2239 ;; =============== function _lcd_clear ends ============
  2240                           
  2241                           	signat	_lcd_clear,88
  2242                           	global	_lcd_busy
  2243                           psect	text1140,local,class=CODE,delta=2
  2244                           global __ptext1140
  2245  0FCD                     __ptext1140:
  2246                           
  2247 ;; *************** function _lcd_busy *****************
  2248 ;; Defined at:
  2249 ;;		line 47 in file "Z:\Users\ittus\Studying\FU\Fall 2014\ESH201\Assignment 2\lcd.c"
  2250 ;; Parameters:    Size  Location     Type
  2251 ;;		None
  2252 ;; Auto vars:     Size  Location     Type
  2253 ;;  busy            1   15[BANK0 ] unsigned char 
  2254 ;; Return value:  Size  Location     Type
  2255 ;;                  1    wreg      unsigned char 
  2256 ;; Registers used:
  2257 ;;		wreg
  2258 ;; Tracked objects:
  2259 ;;		On entry : 0/0
  2260 ;;		On exit  : 0/0
  2261 ;;		Unchanged: 0/0
  2262 ;; Data sizes:     COMMON   BANK0   BANK1   BANK3   BANK2
  2263 ;;      Params:         0       0       0       0       0
  2264 ;;      Locals:         0       1       0       0       0
  2265 ;;      Temps:          0       1       0       0       0
  2266 ;;      Totals:         0       2       0       0       0
  2267 ;;Total ram usage:        2 bytes
  2268 ;; Hardware stack levels used:    1
  2269 ;; Hardware stack levels required when called:    5
  2270 ;; This function calls:
  2271 ;;		Nothing
  2272 ;; This function is called by:
  2273 ;;		_lcd_init
  2274 ;;		_lcd_putc
  2275 ;;		_lcd_gotoxy
  2276 ;;		_lcd_clear
  2277 ;; This function uses a non-reentrant model
  2278 ;;
  2279                           psect	text1140
  2280                           	file	"Z:\Users\ittus\Studying\FU\Fall 2014\ESH201\Assignment 2\lcd.c"
  2281                           	line	47
  2282                           	global	__size_of_lcd_busy
  2283  0033                     	__size_of_lcd_busy	equ	__end_of_lcd_busy-_lcd_busy
  2284                           	
  2285  0FCD                     _lcd_busy:	
  2286 ;; hardware stack exceeded
  2287                           	opt	stack 0
  2288                           ; Regs used in _lcd_busy: [wreg]
  2289                           	line	50
  2290                           	
  2291  0FCD                     l7319:	
  2292                           ;lcd.c: 48: unsigned char busy;
  2293                           ;lcd.c: 50: TRISD4 = 1;
  2294  0FCD  1683               	bsf	status, 5	;RP0=1, select bank1
  2295  0FCE  1303               	bcf	status, 6	;RP1=0, select bank1
  2296  0FCF  1608               	bsf	(1092/8)^080h,(1092)&7
  2297                           	line	51
  2298                           ;lcd.c: 51: TRISD5 = 1;
  2299  0FD0  1688               	bsf	(1093/8)^080h,(1093)&7
  2300                           	line	52
  2301                           ;lcd.c: 52: TRISD6 = 1;
  2302  0FD1  1708               	bsf	(1094/8)^080h,(1094)&7
  2303                           	line	53
  2304                           ;lcd.c: 53: TRISD7 = 1;
  2305  0FD2  1788               	bsf	(1095/8)^080h,(1095)&7
  2306                           	line	55
  2307                           ;lcd.c: 55: RD2 = 1;
  2308  0FD3  1283               	bcf	status, 5	;RP0=0, select bank0
  2309  0FD4  1303               	bcf	status, 6	;RP1=0, select bank0
  2310  0FD5  1508               	bsf	(66/8),(66)&7
  2311                           	line	56
  2312                           ;lcd.c: 56: RD1 = 0;
  2313  0FD6  1088               	bcf	(65/8),(65)&7
  2314                           	line	57
  2315                           	
  2316  0FD7                     l7321:	
  2317                           ;lcd.c: 57: _delay((unsigned long)((20)*(4000000/4000000.0)));
  2318                           	opt asmopt_off
  2319  0FD7  3006               movlw	6
  2320  0FD8  00AE               movwf	(??_lcd_busy+0)+0,f
  2321  0FD9                     u5887:
  2322  0FD9  0BAE               decfsz	(??_lcd_busy+0)+0,f
  2323  0FDA  2FD9               	goto	u5887
  2324  0FDB  0064               	clrwdt
  2325                           opt asmopt_on
  2326                           
  2327                           	line	58
  2328                           	
  2329  0FDC                     l7323:	
  2330                           ;lcd.c: 58: RD3 = 1;
  2331  0FDC  1283               	bcf	status, 5	;RP0=0, select bank0
  2332  0FDD  1303               	bcf	status, 6	;RP1=0, select bank0
  2333  0FDE  1588               	bsf	(67/8),(67)&7
  2334                           	line	59
  2335                           ;lcd.c: 59: _delay((unsigned long)((20)*(4000000/4000000.0)));
  2336                           	opt asmopt_off
  2337  0FDF  3006               movlw	6
  2338  0FE0  00AE               movwf	(??_lcd_busy+0)+0,f
  2339  0FE1                     u5897:
  2340  0FE1  0BAE               decfsz	(??_lcd_busy+0)+0,f
  2341  0FE2  2FE1               	goto	u5897
  2342  0FE3  0064               	clrwdt
  2343                           opt asmopt_on
  2344                           
  2345                           	line	61
  2346                           ;lcd.c: 61: busy = RD7;
  2347  0FE4  3000               	movlw	0
  2348  0FE5  1283               	bcf	status, 5	;RP0=0, select bank0
  2349  0FE6  1303               	bcf	status, 6	;RP1=0, select bank0
  2350  0FE7  1B88               	btfsc	(71/8),(71)&7
  2351  0FE8  3001               	movlw	1
  2352  0FE9  00AE               	movwf	(??_lcd_busy+0)+0
  2353  0FEA  082E               	movf	(??_lcd_busy+0)+0,w
  2354  0FEB  00AF               	movwf	(lcd_busy@busy)
  2355                           	line	63
  2356                           	
  2357  0FEC                     l7325:	
  2358                           ;lcd.c: 63: RD3 = 0;
  2359  0FEC  1188               	bcf	(67/8),(67)&7
  2360                           	line	64
  2361                           ;lcd.c: 64: _delay((unsigned long)((20)*(4000000/4000000.0)));
  2362                           	opt asmopt_off
  2363  0FED  3006               movlw	6
  2364  0FEE  00AE               movwf	(??_lcd_busy+0)+0,f
  2365  0FEF                     u5907:
  2366  0FEF  0BAE               decfsz	(??_lcd_busy+0)+0,f
  2367  0FF0  2FEF               	goto	u5907
  2368  0FF1  0064               	clrwdt
  2369                           opt asmopt_on
  2370                           
  2371                           	line	65
  2372                           	
  2373  0FF2                     l7327:	
  2374                           ;lcd.c: 65: RD3 = 1;
  2375  0FF2  1283               	bcf	status, 5	;RP0=0, select bank0
  2376  0FF3  1303               	bcf	status, 6	;RP1=0, select bank0
  2377  0FF4  1588               	bsf	(67/8),(67)&7
  2378                           	line	66
  2379                           ;lcd.c: 66: _delay((unsigned long)((20)*(4000000/4000000.0)));
  2380                           	opt asmopt_off
  2381  0FF5  3006               movlw	6
  2382  0FF6  00AE               movwf	(??_lcd_busy+0)+0,f
  2383  0FF7                     u5917:
  2384  0FF7  0BAE               decfsz	(??_lcd_busy+0)+0,f
  2385  0FF8  2FF7               	goto	u5917
  2386  0FF9  0064               	clrwdt
  2387                           opt asmopt_on
  2388                           
  2389                           	line	67
  2390                           	
  2391  0FFA                     l7329:	
  2392                           ;lcd.c: 67: RD3 = 0;
  2393  0FFA  1283               	bcf	status, 5	;RP0=0, select bank0
  2394  0FFB  1303               	bcf	status, 6	;RP1=0, select bank0
  2395  0FFC  1188               	bcf	(67/8),(67)&7
  2396                           	line	70
  2397                           ;lcd.c: 70: return busy;
  2398  0FFD  082F               	movf	(lcd_busy@busy),w
  2399  0FFE  2FFF               	goto	l2130
  2400                           	
  2401  0FFF                     l7331:	
  2402                           	line	71
  2403                           	
  2404  0FFF                     l2130:	
  2405  0FFF  0008               	return
  2406                           	opt stack 0
  2407                           GLOBAL	__end_of_lcd_busy
  2408  1000                     	__end_of_lcd_busy:
  2409 ;; =============== function _lcd_busy ends ============
  2410                           
  2411                           	signat	_lcd_busy,89
  2412                           	global	_lcd_put_byte
  2413                           psect	text1141,local,class=CODE,delta=2
  2414                           global __ptext1141
  2415  043F                     __ptext1141:
  2416                           
  2417 ;; *************** function _lcd_put_byte *****************
  2418 ;; Defined at:
  2419 ;;		line 106 in file "Z:\Users\ittus\Studying\FU\Fall 2014\ESH201\Assignment 2\lcd.c"
  2420 ;; Parameters:    Size  Location     Type
  2421 ;;  rs              1    wreg     unsigned char 
  2422 ;;  b               1   14[BANK0 ] unsigned char 
  2423 ;; Auto vars:     Size  Location     Type
  2424 ;;  rs              1   17[BANK0 ] unsigned char 
  2425 ;;  temp            1   18[BANK0 ] struct _BYTE_VAL
  2426 ;; Return value:  Size  Location     Type
  2427 ;;		None               void
  2428 ;; Registers used:
  2429 ;;		wreg, status,2, status,0
  2430 ;; Tracked objects:
  2431 ;;		On entry : 0/0
  2432 ;;		On exit  : 0/0
  2433 ;;		Unchanged: 0/0
  2434 ;; Data sizes:     COMMON   BANK0   BANK1   BANK3   BANK2
  2435 ;;      Params:         0       1       0       0       0
  2436 ;;      Locals:         0       2       0       0       0
  2437 ;;      Temps:          0       2       0       0       0
  2438 ;;      Totals:         0       5       0       0       0
  2439 ;;Total ram usage:        5 bytes
  2440 ;; Hardware stack levels used:    1
  2441 ;; Hardware stack levels required when called:    5
  2442 ;; This function calls:
  2443 ;;		Nothing
  2444 ;; This function is called by:
  2445 ;;		_lcd_init
  2446 ;;		_lcd_putc
  2447 ;;		_lcd_gotoxy
  2448 ;;		_lcd_clear
  2449 ;; This function uses a non-reentrant model
  2450 ;;
  2451                           psect	text1141
  2452                           	file	"Z:\Users\ittus\Studying\FU\Fall 2014\ESH201\Assignment 2\lcd.c"
  2453                           	line	106
  2454                           	global	__size_of_lcd_put_byte
  2455  00C2                     	__size_of_lcd_put_byte	equ	__end_of_lcd_put_byte-_lcd_put_byte
  2456                           	
  2457  043F                     _lcd_put_byte:	
  2458 ;; hardware stack exceeded
  2459                           	opt	stack 0
  2460                           ; Regs used in _lcd_put_byte: [wreg+status,2+status,0]
  2461                           ;lcd_put_byte@rs stored from wreg
  2462                           	line	109
  2463  043F  1283               	bcf	status, 5	;RP0=0, select bank0
  2464  0440  1303               	bcf	status, 6	;RP1=0, select bank0
  2465  0441  00B1               	movwf	(lcd_put_byte@rs)
  2466                           	
  2467  0442                     l7283:	
  2468                           ;lcd.c: 107: BYTE_VAL temp;
  2469                           ;lcd.c: 109: TRISD4 = 0;
  2470  0442  1683               	bsf	status, 5	;RP0=1, select bank1
  2471  0443  1303               	bcf	status, 6	;RP1=0, select bank1
  2472  0444  1208               	bcf	(1092/8)^080h,(1092)&7
  2473                           	line	110
  2474                           ;lcd.c: 110: TRISD5 = 0;
  2475  0445  1288               	bcf	(1093/8)^080h,(1093)&7
  2476                           	line	111
  2477                           ;lcd.c: 111: TRISD6 = 0;
  2478  0446  1308               	bcf	(1094/8)^080h,(1094)&7
  2479                           	line	112
  2480                           ;lcd.c: 112: TRISD7 = 0;
  2481  0447  1388               	bcf	(1095/8)^080h,(1095)&7
  2482                           	line	114
  2483                           ;lcd.c: 114: RD1 = 0;
  2484  0448  1283               	bcf	status, 5	;RP0=0, select bank0
  2485  0449  1303               	bcf	status, 6	;RP1=0, select bank0
  2486  044A  1088               	bcf	(65/8),(65)&7
  2487                           	line	115
  2488                           	
  2489  044B                     l7285:	
  2490                           ;lcd.c: 115: if(rs) RD1 = 1;
  2491  044B  0831               	movf	(lcd_put_byte@rs),w
  2492  044C  1D03               	skipz
  2493  044D  2C4F               	goto	u5500
  2494  044E  2C51               	goto	l7289
  2495  044F                     u5500:
  2496                           	
  2497  044F                     l7287:	
  2498  044F  1488               	bsf	(65/8),(65)&7
  2499  0450  2C51               	goto	l7289
  2500                           	
  2501  0451                     l2137:	
  2502                           	line	117
  2503                           	
  2504  0451                     l7289:	
  2505                           ;lcd.c: 117: _delay((unsigned long)((20)*(4000000/4000000.0)));
  2506                           	opt asmopt_off
  2507  0451  3006               movlw	6
  2508  0452  00AF               movwf	(??_lcd_put_byte+0)+0,f
  2509  0453                     u5927:
  2510  0453  0BAF               decfsz	(??_lcd_put_byte+0)+0,f
  2511  0454  2C53               	goto	u5927
  2512  0455  0064               	clrwdt
  2513                           opt asmopt_on
  2514                           
  2515                           	line	118
  2516                           	
  2517  0456                     l7291:	
  2518                           ;lcd.c: 118: RD2 = 0;
  2519  0456  1283               	bcf	status, 5	;RP0=0, select bank0
  2520  0457  1303               	bcf	status, 6	;RP1=0, select bank0
  2521  0458  1108               	bcf	(66/8),(66)&7
  2522                           	line	119
  2523                           ;lcd.c: 119: _delay((unsigned long)((20)*(4000000/4000000.0)));
  2524                           	opt asmopt_off
  2525  0459  3006               movlw	6
  2526  045A  00AF               movwf	(??_lcd_put_byte+0)+0,f
  2527  045B                     u5937:
  2528  045B  0BAF               decfsz	(??_lcd_put_byte+0)+0,f
  2529  045C  2C5B               	goto	u5937
  2530  045D  0064               	clrwdt
  2531                           opt asmopt_on
  2532                           
  2533                           	line	120
  2534                           	
  2535  045E                     l7293:	
  2536                           ;lcd.c: 120: RD3 = 0;
  2537  045E  1283               	bcf	status, 5	;RP0=0, select bank0
  2538  045F  1303               	bcf	status, 6	;RP1=0, select bank0
  2539  0460  1188               	bcf	(67/8),(67)&7
  2540                           	line	122
  2541                           ;lcd.c: 122: temp.Val = b;
  2542  0461  082E               	movf	(lcd_put_byte@b),w
  2543  0462  00AF               	movwf	(??_lcd_put_byte+0)+0
  2544  0463  082F               	movf	(??_lcd_put_byte+0)+0,w
  2545  0464  00B2               	movwf	(lcd_put_byte@temp)
  2546                           	line	125
  2547                           	
  2548  0465                     l7295:	
  2549                           ;lcd.c: 125: RD4 = temp.bits.b4;
  2550  0465  0E32               	swapf	(lcd_put_byte@temp),w
  2551  0466  3901               	andlw	(1<<1)-1
  2552  0467  00AF               	movwf	(??_lcd_put_byte+0)+0
  2553  0468  0C2F               	rrf	(??_lcd_put_byte+0)+0,w
  2554  0469  1803               	btfsc	status,0
  2555  046A  2C6C               	goto	u5511
  2556  046B  2C70               	goto	u5510
  2557                           	
  2558  046C                     u5511:
  2559  046C  1283               	bcf	status, 5	;RP0=0, select bank0
  2560  046D  1303               	bcf	status, 6	;RP1=0, select bank0
  2561  046E  1608               	bsf	(68/8),(68)&7
  2562  046F  2C73               	goto	u5524
  2563  0470                     u5510:
  2564  0470  1283               	bcf	status, 5	;RP0=0, select bank0
  2565  0471  1303               	bcf	status, 6	;RP1=0, select bank0
  2566  0472  1208               	bcf	(68/8),(68)&7
  2567  0473                     u5524:
  2568                           	line	126
  2569                           	
  2570  0473                     l7297:	
  2571                           ;lcd.c: 126: RD5 = temp.bits.b5;
  2572  0473  0E32               	swapf	(lcd_put_byte@temp),w
  2573  0474  00AF               	movwf	(??_lcd_put_byte+0)+0
  2574  0475  0C2F               	rrf	(??_lcd_put_byte+0)+0,w
  2575  0476  3901               	andlw	(1<<1)-1
  2576  0477  00B0               	movwf	(??_lcd_put_byte+1)+0
  2577  0478  0C30               	rrf	(??_lcd_put_byte+1)+0,w
  2578  0479  1803               	btfsc	status,0
  2579  047A  2C7C               	goto	u5531
  2580  047B  2C80               	goto	u5530
  2581                           	
  2582  047C                     u5531:
  2583  047C  1283               	bcf	status, 5	;RP0=0, select bank0
  2584  047D  1303               	bcf	status, 6	;RP1=0, select bank0
  2585  047E  1688               	bsf	(69/8),(69)&7
  2586  047F  2C83               	goto	u5544
  2587  0480                     u5530:
  2588  0480  1283               	bcf	status, 5	;RP0=0, select bank0
  2589  0481  1303               	bcf	status, 6	;RP1=0, select bank0
  2590  0482  1288               	bcf	(69/8),(69)&7
  2591  0483                     u5544:
  2592                           	line	127
  2593                           	
  2594  0483                     l7299:	
  2595                           ;lcd.c: 127: RD6 = temp.bits.b6;
  2596  0483  0E32               	swapf	(lcd_put_byte@temp),w
  2597  0484  00AF               	movwf	(??_lcd_put_byte+0)+0
  2598  0485  0CAF               	rrf	(??_lcd_put_byte+0)+0,f
  2599  0486  0C2F               	rrf	(??_lcd_put_byte+0)+0,w
  2600  0487  3901               	andlw	(1<<1)-1
  2601  0488  00B0               	movwf	(??_lcd_put_byte+1)+0
  2602  0489  0C30               	rrf	(??_lcd_put_byte+1)+0,w
  2603  048A  1803               	btfsc	status,0
  2604  048B  2C8D               	goto	u5551
  2605  048C  2C91               	goto	u5550
  2606                           	
  2607  048D                     u5551:
  2608  048D  1283               	bcf	status, 5	;RP0=0, select bank0
  2609  048E  1303               	bcf	status, 6	;RP1=0, select bank0
  2610  048F  1708               	bsf	(70/8),(70)&7
  2611  0490  2C94               	goto	u5564
  2612  0491                     u5550:
  2613  0491  1283               	bcf	status, 5	;RP0=0, select bank0
  2614  0492  1303               	bcf	status, 6	;RP1=0, select bank0
  2615  0493  1308               	bcf	(70/8),(70)&7
  2616  0494                     u5564:
  2617                           	line	128
  2618                           	
  2619  0494                     l7301:	
  2620                           ;lcd.c: 128: RD7 = temp.bits.b7;
  2621  0494  0D32               	rlf	(lcd_put_byte@temp),w
  2622  0495  0D32               	rlf	(lcd_put_byte@temp),w
  2623  0496  3901               	andlw	1
  2624  0497  00AF               	movwf	(??_lcd_put_byte+0)+0
  2625  0498  0C2F               	rrf	(??_lcd_put_byte+0)+0,w
  2626  0499  1803               	btfsc	status,0
  2627  049A  2C9C               	goto	u5571
  2628  049B  2CA0               	goto	u5570
  2629                           	
  2630  049C                     u5571:
  2631  049C  1283               	bcf	status, 5	;RP0=0, select bank0
  2632  049D  1303               	bcf	status, 6	;RP1=0, select bank0
  2633  049E  1788               	bsf	(71/8),(71)&7
  2634  049F  2CA3               	goto	u5584
  2635  04A0                     u5570:
  2636  04A0  1283               	bcf	status, 5	;RP0=0, select bank0
  2637  04A1  1303               	bcf	status, 6	;RP1=0, select bank0
  2638  04A2  1388               	bcf	(71/8),(71)&7
  2639  04A3                     u5584:
  2640                           	line	129
  2641                           ;lcd.c: 129: _delay((unsigned long)((20)*(4000000/4000000.0)));
  2642                           	opt asmopt_off
  2643  04A3  3006               movlw	6
  2644  04A4  00AF               movwf	(??_lcd_put_byte+0)+0,f
  2645  04A5                     u5947:
  2646  04A5  0BAF               decfsz	(??_lcd_put_byte+0)+0,f
  2647  04A6  2CA5               	goto	u5947
  2648  04A7  0064               	clrwdt
  2649                           opt asmopt_on
  2650                           
  2651                           	line	130
  2652                           	
  2653  04A8                     l7303:	
  2654                           ;lcd.c: 130: RD3 = 1;
  2655  04A8  1283               	bcf	status, 5	;RP0=0, select bank0
  2656  04A9  1303               	bcf	status, 6	;RP1=0, select bank0
  2657  04AA  1588               	bsf	(67/8),(67)&7
  2658                           	line	131
  2659                           ;lcd.c: 131: _delay((unsigned long)((20)*(4000000/4000000.0)));
  2660                           	opt asmopt_off
  2661  04AB  3006               movlw	6
  2662  04AC  00AF               movwf	(??_lcd_put_byte+0)+0,f
  2663  04AD                     u5957:
  2664  04AD  0BAF               decfsz	(??_lcd_put_byte+0)+0,f
  2665  04AE  2CAD               	goto	u5957
  2666  04AF  0064               	clrwdt
  2667                           opt asmopt_on
  2668                           
  2669                           	line	132
  2670                           	
  2671  04B0                     l7305:	
  2672                           ;lcd.c: 132: RD3 = 0;
  2673  04B0  1283               	bcf	status, 5	;RP0=0, select bank0
  2674  04B1  1303               	bcf	status, 6	;RP1=0, select bank0
  2675  04B2  1188               	bcf	(67/8),(67)&7
  2676                           	line	134
  2677                           	
  2678  04B3                     l7307:	
  2679                           ;lcd.c: 134: RD4 = temp.bits.b0;
  2680  04B3  0832               	movf	(lcd_put_byte@temp),w
  2681  04B4  3901               	andlw	(1<<1)-1
  2682  04B5  00AF               	movwf	(??_lcd_put_byte+0)+0
  2683  04B6  0C2F               	rrf	(??_lcd_put_byte+0)+0,w
  2684  04B7  1803               	btfsc	status,0
  2685  04B8  2CBA               	goto	u5591
  2686  04B9  2CBE               	goto	u5590
  2687                           	
  2688  04BA                     u5591:
  2689  04BA  1283               	bcf	status, 5	;RP0=0, select bank0
  2690  04BB  1303               	bcf	status, 6	;RP1=0, select bank0
  2691  04BC  1608               	bsf	(68/8),(68)&7
  2692  04BD  2CC1               	goto	u5604
  2693  04BE                     u5590:
  2694  04BE  1283               	bcf	status, 5	;RP0=0, select bank0
  2695  04BF  1303               	bcf	status, 6	;RP1=0, select bank0
  2696  04C0  1208               	bcf	(68/8),(68)&7
  2697  04C1                     u5604:
  2698                           	line	135
  2699                           	
  2700  04C1                     l7309:	
  2701                           ;lcd.c: 135: RD5 = temp.bits.b1;
  2702  04C1  0C32               	rrf	(lcd_put_byte@temp),w
  2703  04C2  3901               	andlw	(1<<1)-1
  2704  04C3  00AF               	movwf	(??_lcd_put_byte+0)+0
  2705  04C4  0C2F               	rrf	(??_lcd_put_byte+0)+0,w
  2706  04C5  1803               	btfsc	status,0
  2707  04C6  2CC8               	goto	u5611
  2708  04C7  2CCC               	goto	u5610
  2709                           	
  2710  04C8                     u5611:
  2711  04C8  1283               	bcf	status, 5	;RP0=0, select bank0
  2712  04C9  1303               	bcf	status, 6	;RP1=0, select bank0
  2713  04CA  1688               	bsf	(69/8),(69)&7
  2714  04CB  2CCF               	goto	u5624
  2715  04CC                     u5610:
  2716  04CC  1283               	bcf	status, 5	;RP0=0, select bank0
  2717  04CD  1303               	bcf	status, 6	;RP1=0, select bank0
  2718  04CE  1288               	bcf	(69/8),(69)&7
  2719  04CF                     u5624:
  2720                           	line	136
  2721                           	
  2722  04CF                     l7311:	
  2723                           ;lcd.c: 136: RD6 = temp.bits.b2;
  2724  04CF  0C32               	rrf	(lcd_put_byte@temp),w
  2725  04D0  00AF               	movwf	(??_lcd_put_byte+0)+0
  2726  04D1  0C2F               	rrf	(??_lcd_put_byte+0)+0,w
  2727  04D2  3901               	andlw	(1<<1)-1
  2728  04D3  00B0               	movwf	(??_lcd_put_byte+1)+0
  2729  04D4  0C30               	rrf	(??_lcd_put_byte+1)+0,w
  2730  04D5  1803               	btfsc	status,0
  2731  04D6  2CD8               	goto	u5631
  2732  04D7  2CDC               	goto	u5630
  2733                           	
  2734  04D8                     u5631:
  2735  04D8  1283               	bcf	status, 5	;RP0=0, select bank0
  2736  04D9  1303               	bcf	status, 6	;RP1=0, select bank0
  2737  04DA  1708               	bsf	(70/8),(70)&7
  2738  04DB  2CDF               	goto	u5644
  2739  04DC                     u5630:
  2740  04DC  1283               	bcf	status, 5	;RP0=0, select bank0
  2741  04DD  1303               	bcf	status, 6	;RP1=0, select bank0
  2742  04DE  1308               	bcf	(70/8),(70)&7
  2743  04DF                     u5644:
  2744                           	line	137
  2745                           	
  2746  04DF                     l7313:	
  2747                           ;lcd.c: 137: RD7 = temp.bits.b3;
  2748  04DF  0C32               	rrf	(lcd_put_byte@temp),w
  2749  04E0  00AF               	movwf	(??_lcd_put_byte+0)+0
  2750  04E1  0CAF               	rrf	(??_lcd_put_byte+0)+0,f
  2751  04E2  0C2F               	rrf	(??_lcd_put_byte+0)+0,w
  2752  04E3  3901               	andlw	(1<<1)-1
  2753  04E4  00B0               	movwf	(??_lcd_put_byte+1)+0
  2754  04E5  0C30               	rrf	(??_lcd_put_byte+1)+0,w
  2755  04E6  1803               	btfsc	status,0
  2756  04E7  2CE9               	goto	u5651
  2757  04E8  2CED               	goto	u5650
  2758                           	
  2759  04E9                     u5651:
  2760  04E9  1283               	bcf	status, 5	;RP0=0, select bank0
  2761  04EA  1303               	bcf	status, 6	;RP1=0, select bank0
  2762  04EB  1788               	bsf	(71/8),(71)&7
  2763  04EC  2CF0               	goto	u5664
  2764  04ED                     u5650:
  2765  04ED  1283               	bcf	status, 5	;RP0=0, select bank0
  2766  04EE  1303               	bcf	status, 6	;RP1=0, select bank0
  2767  04EF  1388               	bcf	(71/8),(71)&7
  2768  04F0                     u5664:
  2769                           	line	138
  2770                           ;lcd.c: 138: _delay((unsigned long)((20)*(4000000/4000000.0)));
  2771                           	opt asmopt_off
  2772  04F0  3006               movlw	6
  2773  04F1  00AF               movwf	(??_lcd_put_byte+0)+0,f
  2774  04F2                     u5967:
  2775  04F2  0BAF               decfsz	(??_lcd_put_byte+0)+0,f
  2776  04F3  2CF2               	goto	u5967
  2777  04F4  0064               	clrwdt
  2778                           opt asmopt_on
  2779                           
  2780                           	line	139
  2781                           	
  2782  04F5                     l7315:	
  2783                           ;lcd.c: 139: RD3 = 1;
  2784  04F5  1283               	bcf	status, 5	;RP0=0, select bank0
  2785  04F6  1303               	bcf	status, 6	;RP1=0, select bank0
  2786  04F7  1588               	bsf	(67/8),(67)&7
  2787                           	line	140
  2788                           ;lcd.c: 140: _delay((unsigned long)((20)*(4000000/4000000.0)));
  2789                           	opt asmopt_off
  2790  04F8  3006               movlw	6
  2791  04F9  00AF               movwf	(??_lcd_put_byte+0)+0,f
  2792  04FA                     u5977:
  2793  04FA  0BAF               decfsz	(??_lcd_put_byte+0)+0,f
  2794  04FB  2CFA               	goto	u5977
  2795  04FC  0064               	clrwdt
  2796                           opt asmopt_on
  2797                           
  2798                           	line	141
  2799                           	
  2800  04FD                     l7317:	
  2801                           ;lcd.c: 141: RD3 = 0;
  2802  04FD  1283               	bcf	status, 5	;RP0=0, select bank0
  2803  04FE  1303               	bcf	status, 6	;RP1=0, select bank0
  2804  04FF  1188               	bcf	(67/8),(67)&7
  2805                           	line	142
  2806                           	
  2807  0500                     l2138:	
  2808  0500  0008               	return
  2809                           	opt stack 0
  2810                           GLOBAL	__end_of_lcd_put_byte
  2811  0501                     	__end_of_lcd_put_byte:
  2812 ;; =============== function _lcd_put_byte ends ============
  2813                           
  2814                           	signat	_lcd_put_byte,8312
  2815                           	global	_enable_interrupt
  2816                           psect	text1142,local,class=CODE,delta=2
  2817                           global __ptext1142
  2818  0DCF                     __ptext1142:
  2819                           
  2820 ;; *************** function _enable_interrupt *****************
  2821 ;; Defined at:
  2822 ;;		line 22 in file "Z:\Users\ittus\Studying\FU\Fall 2014\ESH201\Assignment 2\C_LCD.c"
  2823 ;; Parameters:    Size  Location     Type
  2824 ;;		None
  2825 ;; Auto vars:     Size  Location     Type
  2826 ;;		None
  2827 ;; Return value:  Size  Location     Type
  2828 ;;		None               void
  2829 ;; Registers used:
  2830 ;;		wreg, status,2, status,0, pclath, cstack
  2831 ;; Tracked objects:
  2832 ;;		On entry : 0/0
  2833 ;;		On exit  : 0/0
  2834 ;;		Unchanged: 0/0
  2835 ;; Data sizes:     COMMON   BANK0   BANK1   BANK3   BANK2
  2836 ;;      Params:         0       0       0       0       0
  2837 ;;      Locals:         0       0       0       0       0
  2838 ;;      Temps:          0       0       0       0       0
  2839 ;;      Totals:         0       0       0       0       0
  2840 ;;Total ram usage:        0 bytes
  2841 ;; Hardware stack levels used:    1
  2842 ;; Hardware stack levels required when called:    6
  2843 ;; This function calls:
  2844 ;;		_set_counter
  2845 ;; This function is called by:
  2846 ;;		_main
  2847 ;; This function uses a non-reentrant model
  2848 ;;
  2849                           psect	text1142
  2850                           	file	"Z:\Users\ittus\Studying\FU\Fall 2014\ESH201\Assignment 2\C_LCD.c"
  2851                           	line	22
  2852                           	global	__size_of_enable_interrupt
  2853  0017                     	__size_of_enable_interrupt	equ	__end_of_enable_interrupt-_enable_interrupt
  2854                           	
  2855  0DCF                     _enable_interrupt:	
  2856                           	opt	stack 1
  2857                           ; Regs used in _enable_interrupt: [wreg+status,2+status,0+pclath+cstack]
  2858                           	line	23
  2859                           	
  2860  0DCF                     l6761:	
  2861                           ;C_LCD.c: 23: GIE = 1;
  2862  0DCF  178B               	bsf	(95/8),(95)&7
  2863                           	line	24
  2864                           ;C_LCD.c: 24: PEIE = 1;
  2865  0DD0  170B               	bsf	(94/8),(94)&7
  2866                           	line	25
  2867                           ;C_LCD.c: 25: RCIE = 1;
  2868  0DD1  1683               	bsf	status, 5	;RP0=1, select bank1
  2869  0DD2  1303               	bcf	status, 6	;RP1=0, select bank1
  2870  0DD3  168C               	bsf	(1125/8)^080h,(1125)&7
  2871                           	line	28
  2872                           ;C_LCD.c: 28: TMR1ON = 1;
  2873  0DD4  1283               	bcf	status, 5	;RP0=0, select bank0
  2874  0DD5  1303               	bcf	status, 6	;RP1=0, select bank0
  2875  0DD6  1410               	bsf	(128/8),(128)&7
  2876                           	line	29
  2877                           ;C_LCD.c: 29: TMR1CS = 1;
  2878  0DD7  1490               	bsf	(129/8),(129)&7
  2879                           	line	30
  2880                           ;C_LCD.c: 30: T1SYNC = 1;
  2881  0DD8  1510               	bsf	(130/8),(130)&7
  2882                           	line	31
  2883                           ;C_LCD.c: 31: T1OSCEN = 1;
  2884  0DD9  1590               	bsf	(131/8),(131)&7
  2885                           	line	32
  2886                           ;C_LCD.c: 32: T1CKPS0 = 0;
  2887  0DDA  1210               	bcf	(132/8),(132)&7
  2888                           	line	33
  2889                           ;C_LCD.c: 33: T1CKPS1 = 0;
  2890  0DDB  1290               	bcf	(133/8),(133)&7
  2891                           	line	34
  2892                           ;C_LCD.c: 34: TMR1IF = 0;
  2893  0DDC  100C               	bcf	(96/8),(96)&7
  2894                           	line	35
  2895                           ;C_LCD.c: 35: TMR1IE = 1;
  2896  0DDD  1683               	bsf	status, 5	;RP0=1, select bank1
  2897  0DDE  1303               	bcf	status, 6	;RP1=0, select bank1
  2898  0DDF  140C               	bsf	(1120/8)^080h,(1120)&7
  2899                           	line	36
  2900                           	
  2901  0DE0                     l6763:	
  2902                           ;C_LCD.c: 36: set_counter();
  2903  0DE0  120A  158A  254D   	fcall	_set_counter
              120A  158A         
  2904                           	line	37
  2905                           	
  2906  0DE5                     l1055:	
  2907  0DE5  0008               	return
  2908                           	opt stack 0
  2909                           GLOBAL	__end_of_enable_interrupt
  2910  0DE6                     	__end_of_enable_interrupt:
  2911 ;; =============== function _enable_interrupt ends ============
  2912                           
  2913                           	signat	_enable_interrupt,88
  2914                           	global	_uart_puts
  2915                           psect	text1143,local,class=CODE,delta=2
  2916                           global __ptext1143
  2917  0F3F                     __ptext1143:
  2918                           
  2919 ;; *************** function _uart_puts *****************
  2920 ;; Defined at:
  2921 ;;		line 112 in file "Z:\Users\ittus\Studying\FU\Fall 2014\ESH201\Assignment 2\uart.c"
  2922 ;; Parameters:    Size  Location     Type
  2923 ;;  s               2   15[BANK0 ] PTR const unsigned char 
  2924 ;;		 -> STR_3(13), displayToLCD@temp(8), 
  2925 ;; Auto vars:     Size  Location     Type
  2926 ;;		None
  2927 ;; Return value:  Size  Location     Type
  2928 ;;		None               void
  2929 ;; Registers used:
  2930 ;;		wreg, fsr0l, fsr0h, status,2, status,0, btemp+1, pclath, cstack
  2931 ;; Tracked objects:
  2932 ;;		On entry : 0/0
  2933 ;;		On exit  : 0/0
  2934 ;;		Unchanged: 0/0
  2935 ;; Data sizes:     COMMON   BANK0   BANK1   BANK3   BANK2
  2936 ;;      Params:         0       2       0       0       0
  2937 ;;      Locals:         0       0       0       0       0
  2938 ;;      Temps:          0       0       0       0       0
  2939 ;;      Totals:         0       2       0       0       0
  2940 ;;Total ram usage:        2 bytes
  2941 ;; Hardware stack levels used:    1
  2942 ;; Hardware stack levels required when called:    6
  2943 ;; This function calls:
  2944 ;;		_uart_putc
  2945 ;; This function is called by:
  2946 ;;		_displayToLCD
  2947 ;; This function uses a non-reentrant model
  2948 ;;
  2949                           psect	text1143
  2950                           	file	"Z:\Users\ittus\Studying\FU\Fall 2014\ESH201\Assignment 2\uart.c"
  2951                           	line	112
  2952                           	global	__size_of_uart_puts
  2953  002C                     	__size_of_uart_puts	equ	__end_of_uart_puts-_uart_puts
  2954                           	
  2955  0F3F                     _uart_puts:	
  2956 ;; using string table level
  2957                           	opt	stack 1
  2958                           ; Regs used in _uart_puts: [wreg-fsr0h+status,2+status,0+btemp+1+pclath+cstack]
  2959                           	line	113
  2960                           	
  2961  0F3F                     l7275:	
  2962                           ;uart.c: 113: while(*s != '\0'){
  2963  0F3F  2F59               	goto	l7281
  2964                           	
  2965  0F40                     l3208:	
  2966                           	line	114
  2967                           	
  2968  0F40                     l7277:	
  2969                           ;uart.c: 114: uart_putc(*s);
  2970  0F40  1283               	bcf	status, 5	;RP0=0, select bank0
  2971  0F41  1303               	bcf	status, 6	;RP1=0, select bank0
  2972  0F42  0830               	movf	(uart_puts@s+1),w
  2973  0F43  00FF               	movwf	btemp+1
  2974  0F44  082F               	movf	(uart_puts@s),w
  2975  0F45  0084               	movwf	fsr0
  2976  0F46  120A  118A  2700   	fcall	stringtab
              120A  158A         
  2977  0F4B  120A  158A  2569   	fcall	_uart_putc
              120A  158A         
  2978                           	line	115
  2979                           	
  2980  0F50                     l7279:	
  2981                           ;uart.c: 115: s++;
  2982  0F50  3001               	movlw	low(01h)
  2983  0F51  1283               	bcf	status, 5	;RP0=0, select bank0
  2984  0F52  1303               	bcf	status, 6	;RP1=0, select bank0
  2985  0F53  07AF               	addwf	(uart_puts@s),f
  2986  0F54  1803               	skipnc
  2987  0F55  0AB0               	incf	(uart_puts@s+1),f
  2988  0F56  3000               	movlw	high(01h)
  2989  0F57  07B0               	addwf	(uart_puts@s+1),f
  2990  0F58  2F59               	goto	l7281
  2991                           	line	116
  2992                           	
  2993  0F59                     l3207:	
  2994                           	line	113
  2995                           	
  2996  0F59                     l7281:	
  2997  0F59  1283               	bcf	status, 5	;RP0=0, select bank0
  2998  0F5A  1303               	bcf	status, 6	;RP1=0, select bank0
  2999  0F5B  0830               	movf	(uart_puts@s+1),w
  3000  0F5C  00FF               	movwf	btemp+1
  3001  0F5D  082F               	movf	(uart_puts@s),w
  3002  0F5E  0084               	movwf	fsr0
  3003  0F5F  120A  118A  2700   	fcall	stringtab
              120A  158A         
  3004  0F64  3800               	iorlw	0
  3005  0F65  1D03               	skipz
  3006  0F66  2F68               	goto	u5491
  3007  0F67  2F69               	goto	u5490
  3008  0F68                     u5491:
  3009  0F68  2F40               	goto	l7277
  3010  0F69                     u5490:
  3011  0F69  2F6A               	goto	l3210
  3012                           	
  3013  0F6A                     l3209:	
  3014                           	line	117
  3015                           	
  3016  0F6A                     l3210:	
  3017  0F6A  0008               	return
  3018                           	opt stack 0
  3019                           GLOBAL	__end_of_uart_puts
  3020  0F6B                     	__end_of_uart_puts:
  3021 ;; =============== function _uart_puts ends ============
  3022                           
  3023                           	signat	_uart_puts,4216
  3024                           	global	_sprintf
  3025                           psect	text1144,local,class=CODE,delta=2
  3026                           global __ptext1144
  3027  0015                     __ptext1144:
  3028                           
  3029 ;; *************** function _sprintf *****************
  3030 ;; Defined at:
  3031 ;;		line 488 in file "C:\Program Files\HI-TECH Software\PICC\9.82\lib\doprnt.c"
  3032 ;; Parameters:    Size  Location     Type
  3033 ;;  sp              1    wreg     PTR unsigned char 
  3034 ;;		 -> displayToLCD@temp(8), 
  3035 ;;  f               1   28[BANK0 ] PTR const unsigned char 
  3036 ;;		 -> STR_1(16), 
  3037 ;; Auto vars:     Size  Location     Type
  3038 ;;  sp              1   47[BANK0 ] PTR unsigned char 
  3039 ;;		 -> displayToLCD@temp(8), 
  3040 ;;  _val            4   40[BANK0 ] struct .
  3041 ;;  width           2   45[BANK0 ] int 
  3042 ;;  c               1   48[BANK0 ] char 
  3043 ;;  flag            1   44[BANK0 ] unsigned char 
  3044 ;;  prec            1   39[BANK0 ] char 
  3045 ;;  ap              1   38[BANK0 ] PTR void [1]
  3046 ;;		 -> ?_sprintf(2), 
  3047 ;; Return value:  Size  Location     Type
  3048 ;;                  2   28[BANK0 ] int 
  3049 ;; Registers used:
  3050 ;;		wreg, fsr0l, fsr0h, status,2, status,0, btemp+1, pclath, cstack
  3051 ;; Tracked objects:
  3052 ;;		On entry : 0/0
  3053 ;;		On exit  : 0/0
  3054 ;;		Unchanged: 0/0
  3055 ;; Data sizes:     COMMON   BANK0   BANK1   BANK3   BANK2
  3056 ;;      Params:         0       7       0       0       0
  3057 ;;      Locals:         0      11       0       0       0
  3058 ;;      Temps:          0       3       0       0       0
  3059 ;;      Totals:         0      21       0       0       0
  3060 ;;Total ram usage:       21 bytes
  3061 ;; Hardware stack levels used:    1
  3062 ;; Hardware stack levels required when called:    6
  3063 ;; This function calls:
  3064 ;;		_isdigit
  3065 ;;		___wmul
  3066 ;;		___lwdiv
  3067 ;;		___lwmod
  3068 ;; This function is called by:
  3069 ;;		_displayToLCD
  3070 ;; This function uses a non-reentrant model
  3071 ;;
  3072                           psect	text1144
  3073                           	file	"C:\Program Files\HI-TECH Software\PICC\9.82\sources\doprnt.c"
  3074                           	line	488
  3075                           	global	__size_of_sprintf
  3076  0204                     	__size_of_sprintf	equ	__end_of_sprintf-_sprintf
  3077                           	
  3078  0015                     _sprintf:	
  3079 ;; using string table level
  3080                           	opt	stack 1
  3081                           ; Regs used in _sprintf: [wreg-fsr0h+status,2+status,0+btemp+1+pclath+cstack]
  3082                           ;sprintf@sp stored from wreg
  3083                           	line	537
  3084  0015  1283               	bcf	status, 5	;RP0=0, select bank0
  3085  0016  1303               	bcf	status, 6	;RP1=0, select bank0
  3086  0017  00CF               	movwf	(sprintf@sp)
  3087                           	
  3088  0018                     l7163:	
  3089  0018  303D               	movlw	(?_sprintf+01h)&0ffh
  3090  0019  00C3               	movwf	(??_sprintf+0)+0
  3091  001A  0843               	movf	(??_sprintf+0)+0,w
  3092  001B  00C6               	movwf	(sprintf@ap)
  3093                           	line	540
  3094  001C  29FB               	goto	l7269
  3095                           	
  3096  001D                     l3239:	
  3097                           	line	542
  3098                           	
  3099  001D                     l7165:	
  3100  001D  0850               	movf	(sprintf@c),w
  3101  001E  3A25               	xorlw	025h
  3102  001F  1903               	skipnz
  3103  0020  2822               	goto	u5301
  3104  0021  2823               	goto	u5300
  3105  0022                     u5301:
  3106  0022  282F               	goto	l7171
  3107  0023                     u5300:
  3108                           	line	545
  3109                           	
  3110  0023                     l7167:	
  3111  0023  0850               	movf	(sprintf@c),w
  3112  0024  00C3               	movwf	(??_sprintf+0)+0
  3113  0025  084F               	movf	(sprintf@sp),w
  3114  0026  0084               	movwf	fsr0
  3115  0027  0843               	movf	(??_sprintf+0)+0,w
  3116  0028  1383               	bcf	status, 7	;select IRP bank0
  3117  0029  0080               	movwf	indf
  3118                           	
  3119  002A                     l7169:	
  3120  002A  3001               	movlw	(01h)
  3121  002B  00C3               	movwf	(??_sprintf+0)+0
  3122  002C  0843               	movf	(??_sprintf+0)+0,w
  3123  002D  07CF               	addwf	(sprintf@sp),f
  3124                           	line	546
  3125  002E  29FB               	goto	l7269
  3126                           	line	547
  3127                           	
  3128  002F                     l3240:	
  3129                           	line	550
  3130                           	
  3131  002F                     l7171:	
  3132  002F  01CD               	clrf	(sprintf@width)
  3133  0030  01CE               	clrf	(sprintf@width+1)
  3134                           	line	552
  3135                           	
  3136  0031                     l7173:	
  3137  0031  01CC               	clrf	(sprintf@flag)
  3138  0032  283B               	goto	l7179
  3139                           	line	554
  3140                           	
  3141  0033                     l3241:	
  3142                           	line	555
  3143  0033  283B               	goto	l7179
  3144                           	line	583
  3145                           	
  3146  0034                     l3243:	
  3147                           	line	584
  3148  0034  154C               	bsf	(sprintf@flag)+(2/8),(2)&7
  3149                           	line	585
  3150                           	
  3151  0035                     l7175:	
  3152  0035  3001               	movlw	(01h)
  3153  0036  00C3               	movwf	(??_sprintf+0)+0
  3154  0037  0843               	movf	(??_sprintf+0)+0,w
  3155  0038  07BC               	addwf	(sprintf@f),f
  3156                           	line	586
  3157  0039  283B               	goto	l7179
  3158                           	line	588
  3159                           	
  3160  003A                     l7177:	
  3161  003A  2848               	goto	l7181
  3162                           	line	555
  3163                           	
  3164  003B                     l3242:	
  3165                           	
  3166  003B                     l7179:	
  3167  003B  083C               	movf	(sprintf@f),w
  3168  003C  0084               	movwf	fsr0
  3169  003D  120A  118A  270A   	fcall	stringdir
              120A  118A         
  3170                           	; Switch size 1, requested type "space"
  3171                           ; Number of cases is 1, Range of values is 48 to 48
  3172                           ; switch strategies available:
  3173                           ; Name         Instructions Cycles
  3174                           ; simple_byte            4     3 (average)
  3175                           ; direct_byte           14    11 (fixed)
  3176                           ; jumptable            263     9 (fixed)
  3177                           ;	Chosen strategy is simple_byte
  3178                           
  3179                           	opt asmopt_off
  3180  0042  3A30               	xorlw	48^0	; case 48
  3181  0043  1903               	skipnz
  3182  0044  2834               	goto	l3243
  3183  0045  2848               	goto	l7181
  3184                           	opt asmopt_on
  3185                           
  3186                           	line	588
  3187                           	
  3188  0046                     l3245:	
  3189                           	line	589
  3190  0046  2848               	goto	l7181
  3191                           	line	590
  3192                           	
  3193  0047                     l3244:	
  3194  0047  283B               	goto	l7179
  3195                           	
  3196  0048                     l3246:	
  3197                           	line	601
  3198                           	
  3199  0048                     l7181:	
  3200  0048  083C               	movf	(sprintf@f),w
  3201  0049  0084               	movwf	fsr0
  3202  004A  120A  118A  270A   	fcall	stringdir
              120A  118A         
  3203  004F  120A  158A  25B8   	fcall	_isdigit
              120A  118A         
  3204  0054  1C03               	btfss	status,0
  3205  0055  2857               	goto	u5311
  3206  0056  2858               	goto	u5310
  3207  0057                     u5311:
  3208  0057  28A2               	goto	l7193
  3209  0058                     u5310:
  3210                           	line	602
  3211                           	
  3212  0058                     l7183:	
  3213  0058  1283               	bcf	status, 5	;RP0=0, select bank0
  3214  0059  1303               	bcf	status, 6	;RP1=0, select bank0
  3215  005A  01CD               	clrf	(sprintf@width)
  3216  005B  01CE               	clrf	(sprintf@width+1)
  3217  005C  285D               	goto	l7185
  3218                           	line	603
  3219                           	
  3220  005D                     l3248:	
  3221                           	line	604
  3222                           	
  3223  005D                     l7185:	
  3224  005D  1283               	bcf	status, 5	;RP0=0, select bank0
  3225  005E  1303               	bcf	status, 6	;RP1=0, select bank0
  3226  005F  084E               	movf	(sprintf@width+1),w
  3227  0060  01AF               	clrf	(?___wmul+1)
  3228  0061  07AF               	addwf	(?___wmul+1)
  3229  0062  084D               	movf	(sprintf@width),w
  3230  0063  01AE               	clrf	(?___wmul)
  3231  0064  07AE               	addwf	(?___wmul)
  3232                           
  3233  0065  300A               	movlw	low(0Ah)
  3234  0066  00B0               	movwf	0+(?___wmul)+02h
  3235  0067  3000               	movlw	high(0Ah)
  3236  0068  00B1               	movwf	(0+(?___wmul)+02h)+1
  3237  0069  120A  158A  2713   	fcall	___wmul
              120A  118A         
  3238  006E  1283               	bcf	status, 5	;RP0=0, select bank0
  3239  006F  1303               	bcf	status, 6	;RP1=0, select bank0
  3240  0070  083C               	movf	(sprintf@f),w
  3241  0071  0084               	movwf	fsr0
  3242  0072  120A  118A  270A   	fcall	stringdir
              120A  118A         
  3243  0077  072E               	addwf	(0+(?___wmul)),w
  3244  0078  00C3               	movwf	(??_sprintf+0)+0
  3245  0079  3000               	movlw	0
  3246  007A  1803               	skipnc
  3247  007B  3001               	movlw	1
  3248  007C  072F               	addwf	(1+(?___wmul)),w
  3249  007D  00C4               	movwf	1+(??_sprintf+0)+0
  3250  007E  0843               	movf	0+(??_sprintf+0)+0,w
  3251  007F  3ED0               	addlw	low(0FFD0h)
  3252  0080  00CD               	movwf	(sprintf@width)
  3253  0081  0844               	movf	1+(??_sprintf+0)+0,w
  3254  0082  1803               	skipnc
  3255  0083  3E01               	addlw	1
  3256  0084  3EFF               	addlw	high(0FFD0h)
  3257  0085  00CE               	movwf	1+(sprintf@width)
  3258                           	
  3259  0086                     l7187:	
  3260  0086  3001               	movlw	(01h)
  3261  0087  00C3               	movwf	(??_sprintf+0)+0
  3262  0088  0843               	movf	(??_sprintf+0)+0,w
  3263  0089  07BC               	addwf	(sprintf@f),f
  3264                           	line	605
  3265                           	
  3266  008A                     l7189:	
  3267  008A  083C               	movf	(sprintf@f),w
  3268  008B  0084               	movwf	fsr0
  3269  008C  120A  118A  270A   	fcall	stringdir
              120A  118A         
  3270  0091  120A  158A  25B8   	fcall	_isdigit
              120A  118A         
  3271  0096  1803               	btfsc	status,0
  3272  0097  2899               	goto	u5321
  3273  0098  289A               	goto	u5320
  3274  0099                     u5321:
  3275  0099  285D               	goto	l7185
  3276  009A                     u5320:
  3277  009A  28A2               	goto	l7193
  3278                           	
  3279  009B                     l3249:	
  3280  009B  28A2               	goto	l7193
  3281                           	line	611
  3282                           	
  3283  009C                     l3247:	
  3284                           	line	638
  3285  009C  28A2               	goto	l7193
  3286                           	line	640
  3287                           	
  3288  009D                     l3251:	
  3289                           	line	641
  3290  009D  2A11               	goto	l7271
  3291                           	line	700
  3292                           	
  3293  009E                     l3253:	
  3294  009E  28B9               	goto	l7195
  3295                           	line	701
  3296                           	
  3297  009F                     l3254:	
  3298                           	line	702
  3299  009F  28B9               	goto	l7195
  3300                           	line	805
  3301                           	
  3302  00A0                     l3256:	
  3303                           	line	816
  3304  00A0  29FB               	goto	l7269
  3305                           	line	825
  3306                           	
  3307  00A1                     l7191:	
  3308  00A1  28B9               	goto	l7195
  3309                           	line	638
  3310                           	
  3311  00A2                     l3250:	
  3312                           	
  3313  00A2                     l7193:	
  3314  00A2  3001               	movlw	01h
  3315  00A3  1283               	bcf	status, 5	;RP0=0, select bank0
  3316  00A4  1303               	bcf	status, 6	;RP1=0, select bank0
  3317  00A5  07BC               	addwf	(sprintf@f),f
  3318  00A6  30FF               	movlw	-01h
  3319  00A7  073C               	addwf	(sprintf@f),w
  3320  00A8  0084               	movwf	fsr0
  3321  00A9  120A  118A  270A   	fcall	stringdir
              120A  118A         
  3322  00AE  00D0               	movwf	(sprintf@c)
  3323                           	; Switch size 1, requested type "space"
  3324                           ; Number of cases is 3, Range of values is 0 to 105
  3325                           ; switch strategies available:
  3326                           ; Name         Instructions Cycles
  3327                           ; simple_byte           10     6 (average)
  3328                           ; jumptable            260     6 (fixed)
  3329                           ; rangetable           110     6 (fixed)
  3330                           ; spacedrange          218     9 (fixed)
  3331                           ; locatedrange         106     3 (fixed)
  3332                           ;	Chosen strategy is simple_byte
  3333                           
  3334                           	opt asmopt_off
  3335  00AF  3A00               	xorlw	0^0	; case 0
  3336  00B0  1903               	skipnz
  3337  00B1  2A11               	goto	l7271
  3338  00B2  3A64               	xorlw	100^0	; case 100
  3339  00B3  1903               	skipnz
  3340  00B4  28B9               	goto	l7195
  3341  00B5  3A0D               	xorlw	105^100	; case 105
  3342  00B6  1903               	skipnz
  3343  00B7  28B9               	goto	l7195
  3344  00B8  29FB               	goto	l7269
  3345                           	opt asmopt_on
  3346                           
  3347                           	line	825
  3348                           	
  3349  00B9                     l3255:	
  3350                           	line	1254
  3351                           	
  3352  00B9                     l7195:	
  3353  00B9  1283               	bcf	status, 5	;RP0=0, select bank0
  3354  00BA  1303               	bcf	status, 6	;RP1=0, select bank0
  3355  00BB  0846               	movf	(sprintf@ap),w
  3356  00BC  0084               	movwf	fsr0
  3357  00BD  1383               	bcf	status, 7	;select IRP bank0
  3358  00BE  0800               	movf	indf,w
  3359  00BF  00C8               	movwf	(sprintf@_val)
  3360  00C0  0A84               	incf	fsr0,f
  3361  00C1  0800               	movf	indf,w
  3362  00C2  00C9               	movwf	(sprintf@_val+1)
  3363                           	
  3364  00C3                     l7197:	
  3365  00C3  3002               	movlw	(02h)
  3366  00C4  00C3               	movwf	(??_sprintf+0)+0
  3367  00C5  0843               	movf	(??_sprintf+0)+0,w
  3368  00C6  07C6               	addwf	(sprintf@ap),f
  3369                           	line	1256
  3370                           	
  3371  00C7                     l7199:	
  3372  00C7  1FC9               	btfss	(sprintf@_val+1),7
  3373  00C8  28CA               	goto	u5331
  3374  00C9  28CB               	goto	u5330
  3375  00CA                     u5331:
  3376  00CA  28D5               	goto	l7205
  3377  00CB                     u5330:
  3378                           	line	1257
  3379                           	
  3380  00CB                     l7201:	
  3381  00CB  3003               	movlw	(03h)
  3382  00CC  00C3               	movwf	(??_sprintf+0)+0
  3383  00CD  0843               	movf	(??_sprintf+0)+0,w
  3384  00CE  04CC               	iorwf	(sprintf@flag),f
  3385                           	line	1258
  3386                           	
  3387  00CF                     l7203:	
  3388  00CF  09C8               	comf	(sprintf@_val),f
  3389  00D0  09C9               	comf	(sprintf@_val+1),f
  3390  00D1  0AC8               	incf	(sprintf@_val),f
  3391  00D2  1903               	skipnz
  3392  00D3  0AC9               	incf	(sprintf@_val+1),f
  3393  00D4  28D5               	goto	l7205
  3394                           	line	1259
  3395                           	
  3396  00D5                     l3257:	
  3397                           	line	1300
  3398                           	
  3399  00D5                     l7205:	
  3400  00D5  01D0               	clrf	(sprintf@c)
  3401  00D6  1403               	bsf	status,0
  3402  00D7  0DD0               	rlf	(sprintf@c),f
  3403                           	
  3404  00D8                     l7207:	
  3405  00D8  0850               	movf	(sprintf@c),w
  3406  00D9  3A05               	xorlw	05h
  3407  00DA  1D03               	skipz
  3408  00DB  28DD               	goto	u5341
  3409  00DC  28DE               	goto	u5340
  3410  00DD                     u5341:
  3411  00DD  28E0               	goto	l7211
  3412  00DE                     u5340:
  3413  00DE  2908               	goto	l7219
  3414                           	
  3415  00DF                     l7209:	
  3416  00DF  2908               	goto	l7219
  3417                           	line	1301
  3418                           	
  3419  00E0                     l3258:	
  3420                           	
  3421  00E0                     l7211:	
  3422  00E0  0850               	movf	(sprintf@c),w
  3423  00E1  00C3               	movwf	(??_sprintf+0)+0
  3424  00E2  0743               	addwf	(??_sprintf+0)+0,w
  3425  00E3  3E01               	addlw	low((_dpowers-__stringbase))
  3426  00E4  0084               	movwf	fsr0
  3427  00E5  120A  118A  270A   	fcall	stringdir
              120A  118A         
  3428  00EA  00C4               	movwf	(??_sprintf+1)+0
  3429  00EB  120A  118A  270A   	fcall	stringdir
              120A  118A         
  3430  00F0  00C5               	movwf	(??_sprintf+1)+0+1
  3431  00F1  0845               	movf	1+(??_sprintf+1)+0,w
  3432  00F2  0249               	subwf	(sprintf@_val+1),w
  3433  00F3  1D03               	skipz
  3434  00F4  28F7               	goto	u5355
  3435  00F5  0844               	movf	0+(??_sprintf+1)+0,w
  3436  00F6  0248               	subwf	(sprintf@_val),w
  3437  00F7                     u5355:
  3438  00F7  1803               	skipnc
  3439  00F8  28FA               	goto	u5351
  3440  00F9  28FB               	goto	u5350
  3441  00FA                     u5351:
  3442  00FA  28FD               	goto	l7215
  3443  00FB                     u5350:
  3444  00FB  2908               	goto	l7219
  3445                           	line	1302
  3446                           	
  3447  00FC                     l7213:	
  3448  00FC  2908               	goto	l7219
  3449                           	
  3450  00FD                     l3260:	
  3451                           	line	1300
  3452                           	
  3453  00FD                     l7215:	
  3454  00FD  3001               	movlw	(01h)
  3455  00FE  00C3               	movwf	(??_sprintf+0)+0
  3456  00FF  0843               	movf	(??_sprintf+0)+0,w
  3457  0100  07D0               	addwf	(sprintf@c),f
  3458                           	
  3459  0101                     l7217:	
  3460  0101  0850               	movf	(sprintf@c),w
  3461  0102  3A05               	xorlw	05h
  3462  0103  1D03               	skipz
  3463  0104  2906               	goto	u5361
  3464  0105  2907               	goto	u5360
  3465  0106                     u5361:
  3466  0106  28E0               	goto	l7211
  3467  0107                     u5360:
  3468  0107  2908               	goto	l7219
  3469                           	
  3470  0108                     l3259:	
  3471                           	line	1340
  3472                           	
  3473  0108                     l7219:	
  3474  0108  084E               	movf	(sprintf@width+1),w
  3475  0109  044D               	iorwf	(sprintf@width),w
  3476  010A  1903               	skipnz
  3477  010B  290D               	goto	u5371
  3478  010C  290E               	goto	u5370
  3479  010D                     u5371:
  3480  010D  291A               	goto	l3261
  3481  010E                     u5370:
  3482                           	
  3483  010E                     l7221:	
  3484  010E  084C               	movf	(sprintf@flag),w
  3485  010F  3903               	andlw	03h
  3486  0110  1903               	btfsc	status,2
  3487  0111  2913               	goto	u5381
  3488  0112  2914               	goto	u5380
  3489  0113                     u5381:
  3490  0113  291A               	goto	l3261
  3491  0114                     u5380:
  3492                           	line	1341
  3493                           	
  3494  0114                     l7223:	
  3495  0114  30FF               	movlw	low(-1)
  3496  0115  07CD               	addwf	(sprintf@width),f
  3497  0116  1803               	skipnc
  3498  0117  0ACE               	incf	(sprintf@width+1),f
  3499  0118  30FF               	movlw	high(-1)
  3500  0119  07CE               	addwf	(sprintf@width+1),f
  3501                           	
  3502  011A                     l3261:	
  3503                           	line	1376
  3504  011A  0850               	movf	(sprintf@c),w
  3505  011B  00C3               	movwf	(??_sprintf+0)+0
  3506  011C  01C4               	clrf	(??_sprintf+0)+0+1
  3507  011D  1BC3               	btfsc	(??_sprintf+0)+0,7
  3508  011E  03C4               	decf	(??_sprintf+0)+0+1,f
  3509  011F  0844               	movf	1+(??_sprintf+0)+0,w
  3510  0120  3A80               	xorlw	80h
  3511  0121  00C5               	movwf	(??_sprintf+2)+0
  3512  0122  084E               	movf	(sprintf@width+1),w
  3513  0123  3A80               	xorlw	80h
  3514  0124  0245               	subwf	(??_sprintf+2)+0,w
  3515  0125  1D03               	skipz
  3516  0126  2929               	goto	u5395
  3517  0127  084D               	movf	(sprintf@width),w
  3518  0128  0243               	subwf	0+(??_sprintf+0)+0,w
  3519  0129                     u5395:
  3520                           
  3521  0129  1803               	skipnc
  3522  012A  292C               	goto	u5391
  3523  012B  292D               	goto	u5390
  3524  012C                     u5391:
  3525  012C  293B               	goto	l7227
  3526  012D                     u5390:
  3527                           	line	1377
  3528                           	
  3529  012D                     l7225:	
  3530  012D  1283               	bcf	status, 5	;RP0=0, select bank0
  3531  012E  1303               	bcf	status, 6	;RP1=0, select bank0
  3532  012F  0850               	movf	(sprintf@c),w
  3533  0130  00C3               	movwf	(??_sprintf+0)+0
  3534  0131  01C4               	clrf	(??_sprintf+0)+0+1
  3535  0132  1BC3               	btfsc	(??_sprintf+0)+0,7
  3536  0133  03C4               	decf	(??_sprintf+0)+0+1,f
  3537  0134  0843               	movf	0+(??_sprintf+0)+0,w
  3538  0135  02CD               	subwf	(sprintf@width),f
  3539  0136  0844               	movf	1+(??_sprintf+0)+0,w
  3540  0137  1C03               	skipc
  3541  0138  03CE               	decf	(sprintf@width+1),f
  3542  0139  02CE               	subwf	(sprintf@width+1),f
  3543  013A  2940               	goto	l7229
  3544                           	line	1378
  3545                           	
  3546  013B                     l3262:	
  3547                           	line	1379
  3548                           	
  3549  013B                     l7227:	
  3550  013B  1283               	bcf	status, 5	;RP0=0, select bank0
  3551  013C  1303               	bcf	status, 6	;RP1=0, select bank0
  3552  013D  01CD               	clrf	(sprintf@width)
  3553  013E  01CE               	clrf	(sprintf@width+1)
  3554  013F  2940               	goto	l7229
  3555                           	
  3556  0140                     l3263:	
  3557                           	line	1382
  3558                           	
  3559  0140                     l7229:	
  3560  0140  1D4C               	btfss	(sprintf@flag),(2)&7
  3561  0141  2943               	goto	u5401
  3562  0142  2944               	goto	u5400
  3563  0143                     u5401:
  3564  0143  2977               	goto	l7245
  3565  0144                     u5400:
  3566                           	line	1387
  3567                           	
  3568  0144                     l7231:	
  3569  0144  084C               	movf	(sprintf@flag),w
  3570  0145  3903               	andlw	03h
  3571  0146  1903               	btfsc	status,2
  3572  0147  2949               	goto	u5411
  3573  0148  294A               	goto	u5410
  3574  0149                     u5411:
  3575  0149  2956               	goto	l7237
  3576  014A                     u5410:
  3577                           	line	1388
  3578                           	
  3579  014A                     l7233:	
  3580  014A  302D               	movlw	(02Dh)
  3581  014B  00C3               	movwf	(??_sprintf+0)+0
  3582  014C  084F               	movf	(sprintf@sp),w
  3583  014D  0084               	movwf	fsr0
  3584  014E  0843               	movf	(??_sprintf+0)+0,w
  3585  014F  1383               	bcf	status, 7	;select IRP bank0
  3586  0150  0080               	movwf	indf
  3587                           	
  3588  0151                     l7235:	
  3589  0151  3001               	movlw	(01h)
  3590  0152  00C3               	movwf	(??_sprintf+0)+0
  3591  0153  0843               	movf	(??_sprintf+0)+0,w
  3592  0154  07CF               	addwf	(sprintf@sp),f
  3593  0155  2956               	goto	l7237
  3594                           	
  3595  0156                     l3265:	
  3596                           	line	1410
  3597                           	
  3598  0156                     l7237:	
  3599  0156  084E               	movf	(sprintf@width+1),w
  3600  0157  044D               	iorwf	(sprintf@width),w
  3601  0158  1903               	skipnz
  3602  0159  295B               	goto	u5421
  3603  015A  295C               	goto	u5420
  3604  015B                     u5421:
  3605  015B  29AA               	goto	l7259
  3606  015C                     u5420:
  3607  015C  295D               	goto	l7239
  3608                           	line	1411
  3609                           	
  3610  015D                     l3267:	
  3611                           	line	1412
  3612                           	
  3613  015D                     l7239:	
  3614  015D  3030               	movlw	(030h)
  3615  015E  00C3               	movwf	(??_sprintf+0)+0
  3616  015F  084F               	movf	(sprintf@sp),w
  3617  0160  0084               	movwf	fsr0
  3618  0161  0843               	movf	(??_sprintf+0)+0,w
  3619  0162  1383               	bcf	status, 7	;select IRP bank0
  3620  0163  0080               	movwf	indf
  3621                           	
  3622  0164                     l7241:	
  3623  0164  3001               	movlw	(01h)
  3624  0165  00C3               	movwf	(??_sprintf+0)+0
  3625  0166  0843               	movf	(??_sprintf+0)+0,w
  3626  0167  07CF               	addwf	(sprintf@sp),f
  3627                           	line	1413
  3628                           	
  3629  0168                     l7243:	
  3630  0168  30FF               	movlw	low(-1)
  3631  0169  07CD               	addwf	(sprintf@width),f
  3632  016A  1803               	skipnc
  3633  016B  0ACE               	incf	(sprintf@width+1),f
  3634  016C  30FF               	movlw	high(-1)
  3635  016D  07CE               	addwf	(sprintf@width+1),f
  3636  016E  084E               	movf	(((sprintf@width+1))),w
  3637  016F  044D               	iorwf	(((sprintf@width))),w
  3638  0170  1D03               	skipz
  3639  0171  2973               	goto	u5431
  3640  0172  2974               	goto	u5430
  3641  0173                     u5431:
  3642  0173  295D               	goto	l7239
  3643  0174                     u5430:
  3644  0174  29AA               	goto	l7259
  3645                           	
  3646  0175                     l3268:	
  3647  0175  29AA               	goto	l7259
  3648                           	
  3649  0176                     l3266:	
  3650                           	line	1415
  3651  0176  29AA               	goto	l7259
  3652                           	
  3653  0177                     l3264:	
  3654                           	line	1423
  3655                           	
  3656  0177                     l7245:	
  3657  0177  084E               	movf	(sprintf@width+1),w
  3658  0178  044D               	iorwf	(sprintf@width),w
  3659  0179  1903               	skipnz
  3660  017A  297C               	goto	u5441
  3661  017B  297D               	goto	u5440
  3662  017C                     u5441:
  3663  017C  2997               	goto	l7253
  3664  017D                     u5440:
  3665  017D  297E               	goto	l7247
  3666                           	line	1424
  3667                           	
  3668  017E                     l3271:	
  3669                           	line	1425
  3670                           	
  3671  017E                     l7247:	
  3672  017E  3020               	movlw	(020h)
  3673  017F  00C3               	movwf	(??_sprintf+0)+0
  3674  0180  084F               	movf	(sprintf@sp),w
  3675  0181  0084               	movwf	fsr0
  3676  0182  0843               	movf	(??_sprintf+0)+0,w
  3677  0183  1383               	bcf	status, 7	;select IRP bank0
  3678  0184  0080               	movwf	indf
  3679                           	
  3680  0185                     l7249:	
  3681  0185  3001               	movlw	(01h)
  3682  0186  00C3               	movwf	(??_sprintf+0)+0
  3683  0187  0843               	movf	(??_sprintf+0)+0,w
  3684  0188  07CF               	addwf	(sprintf@sp),f
  3685                           	line	1426
  3686                           	
  3687  0189                     l7251:	
  3688  0189  30FF               	movlw	low(-1)
  3689  018A  07CD               	addwf	(sprintf@width),f
  3690  018B  1803               	skipnc
  3691  018C  0ACE               	incf	(sprintf@width+1),f
  3692  018D  30FF               	movlw	high(-1)
  3693  018E  07CE               	addwf	(sprintf@width+1),f
  3694  018F  084E               	movf	(((sprintf@width+1))),w
  3695  0190  044D               	iorwf	(((sprintf@width))),w
  3696  0191  1D03               	skipz
  3697  0192  2994               	goto	u5451
  3698  0193  2995               	goto	u5450
  3699  0194                     u5451:
  3700  0194  297E               	goto	l7247
  3701  0195                     u5450:
  3702  0195  2997               	goto	l7253
  3703                           	
  3704  0196                     l3272:	
  3705  0196  2997               	goto	l7253
  3706                           	
  3707  0197                     l3270:	
  3708                           	line	1433
  3709                           	
  3710  0197                     l7253:	
  3711  0197  084C               	movf	(sprintf@flag),w
  3712  0198  3903               	andlw	03h
  3713  0199  1903               	btfsc	status,2
  3714  019A  299C               	goto	u5461
  3715  019B  299D               	goto	u5460
  3716  019C                     u5461:
  3717  019C  29AA               	goto	l7259
  3718  019D                     u5460:
  3719                           	line	1434
  3720                           	
  3721  019D                     l7255:	
  3722  019D  302D               	movlw	(02Dh)
  3723  019E  00C3               	movwf	(??_sprintf+0)+0
  3724  019F  084F               	movf	(sprintf@sp),w
  3725  01A0  0084               	movwf	fsr0
  3726  01A1  0843               	movf	(??_sprintf+0)+0,w
  3727  01A2  1383               	bcf	status, 7	;select IRP bank0
  3728  01A3  0080               	movwf	indf
  3729                           	
  3730  01A4                     l7257:	
  3731  01A4  3001               	movlw	(01h)
  3732  01A5  00C3               	movwf	(??_sprintf+0)+0
  3733  01A6  0843               	movf	(??_sprintf+0)+0,w
  3734  01A7  07CF               	addwf	(sprintf@sp),f
  3735  01A8  29AA               	goto	l7259
  3736                           	
  3737  01A9                     l3273:	
  3738  01A9  29AA               	goto	l7259
  3739                           	line	1464
  3740                           	
  3741  01AA                     l3269:	
  3742                           	line	1467
  3743                           	
  3744  01AA                     l7259:	
  3745  01AA  0850               	movf	(sprintf@c),w
  3746  01AB  00C3               	movwf	(??_sprintf+0)+0
  3747  01AC  0843               	movf	(??_sprintf+0)+0,w
  3748  01AD  00C7               	movwf	(sprintf@prec)
  3749                           	line	1469
  3750  01AE  29EF               	goto	l7267
  3751                           	
  3752  01AF                     l3275:	
  3753                           	line	1484
  3754                           	
  3755  01AF                     l7261:	
  3756  01AF  300A               	movlw	low(0Ah)
  3757  01B0  00B6               	movwf	(?___lwmod)
  3758  01B1  3000               	movlw	high(0Ah)
  3759  01B2  00B7               	movwf	((?___lwmod))+1
  3760  01B3  0847               	movf	(sprintf@prec),w
  3761  01B4  00C3               	movwf	(??_sprintf+0)+0
  3762  01B5  0743               	addwf	(??_sprintf+0)+0,w
  3763  01B6  3E01               	addlw	low((_dpowers-__stringbase))
  3764  01B7  0084               	movwf	fsr0
  3765  01B8  120A  118A  270A   	fcall	stringdir
              120A  118A         
  3766  01BD  00AE               	movwf	(?___lwdiv)
  3767  01BE  120A  118A  270A   	fcall	stringdir
              120A  118A         
  3768  01C3  00AF               	movwf	(?___lwdiv+1)
  3769  01C4  0849               	movf	(sprintf@_val+1),w
  3770  01C5  01B1               	clrf	1+(?___lwdiv)+02h
  3771  01C6  07B1               	addwf	1+(?___lwdiv)+02h
  3772  01C7  0848               	movf	(sprintf@_val),w
  3773  01C8  01B0               	clrf	0+(?___lwdiv)+02h
  3774  01C9  07B0               	addwf	0+(?___lwdiv)+02h
  3775                           
  3776  01CA  120A  118A  261B   	fcall	___lwdiv
              120A  118A         
  3777  01CF  1283               	bcf	status, 5	;RP0=0, select bank0
  3778  01D0  1303               	bcf	status, 6	;RP1=0, select bank0
  3779  01D1  082F               	movf	(1+(?___lwdiv)),w
  3780  01D2  01B9               	clrf	1+(?___lwmod)+02h
  3781  01D3  07B9               	addwf	1+(?___lwmod)+02h
  3782  01D4  082E               	movf	(0+(?___lwdiv)),w
  3783  01D5  01B8               	clrf	0+(?___lwmod)+02h
  3784  01D6  07B8               	addwf	0+(?___lwmod)+02h
  3785                           
  3786  01D7  120A  118A  274F   	fcall	___lwmod
              120A  118A         
  3787  01DC  1283               	bcf	status, 5	;RP0=0, select bank0
  3788  01DD  1303               	bcf	status, 6	;RP1=0, select bank0
  3789  01DE  0836               	movf	(0+(?___lwmod)),w
  3790  01DF  3E30               	addlw	030h
  3791  01E0  00C4               	movwf	(??_sprintf+1)+0
  3792  01E1  0844               	movf	(??_sprintf+1)+0,w
  3793  01E2  00D0               	movwf	(sprintf@c)
  3794                           	line	1516
  3795                           	
  3796  01E3                     l7263:	
  3797  01E3  0850               	movf	(sprintf@c),w
  3798  01E4  00C3               	movwf	(??_sprintf+0)+0
  3799  01E5  084F               	movf	(sprintf@sp),w
  3800  01E6  0084               	movwf	fsr0
  3801  01E7  0843               	movf	(??_sprintf+0)+0,w
  3802  01E8  1383               	bcf	status, 7	;select IRP bank0
  3803  01E9  0080               	movwf	indf
  3804                           	
  3805  01EA                     l7265:	
  3806  01EA  3001               	movlw	(01h)
  3807  01EB  00C3               	movwf	(??_sprintf+0)+0
  3808  01EC  0843               	movf	(??_sprintf+0)+0,w
  3809  01ED  07CF               	addwf	(sprintf@sp),f
  3810  01EE  29EF               	goto	l7267
  3811                           	line	1517
  3812                           	
  3813  01EF                     l3274:	
  3814                           	line	1469
  3815                           	
  3816  01EF                     l7267:	
  3817  01EF  30FF               	movlw	(-1)
  3818  01F0  00C3               	movwf	(??_sprintf+0)+0
  3819  01F1  0843               	movf	(??_sprintf+0)+0,w
  3820  01F2  07C7               	addwf	(sprintf@prec),f
  3821  01F3  0847               	movf	((sprintf@prec)),w
  3822  01F4  3AFF               	xorlw	-1
  3823  01F5  1D03               	skipz
  3824  01F6  29F8               	goto	u5471
  3825  01F7  29F9               	goto	u5470
  3826  01F8                     u5471:
  3827  01F8  29AF               	goto	l7261
  3828  01F9                     u5470:
  3829  01F9  29FB               	goto	l7269
  3830                           	
  3831  01FA                     l3276:	
  3832  01FA  29FB               	goto	l7269
  3833                           	line	1525
  3834                           	
  3835  01FB                     l3238:	
  3836                           	line	540
  3837                           	
  3838  01FB                     l7269:	
  3839  01FB  3001               	movlw	01h
  3840  01FC  1283               	bcf	status, 5	;RP0=0, select bank0
  3841  01FD  1303               	bcf	status, 6	;RP1=0, select bank0
  3842  01FE  07BC               	addwf	(sprintf@f),f
  3843  01FF  30FF               	movlw	-01h
  3844  0200  073C               	addwf	(sprintf@f),w
  3845  0201  0084               	movwf	fsr0
  3846  0202  120A  118A  270A   	fcall	stringdir
              120A  118A         
  3847  0207  00C3               	movwf	(??_sprintf+0)+0
  3848  0208  0843               	movf	(??_sprintf+0)+0,w
  3849  0209  00D0               	movwf	(sprintf@c)
  3850  020A  08D0               	movf	((sprintf@c)),f
  3851  020B  1D03               	skipz
  3852  020C  2A0E               	goto	u5481
  3853  020D  2A0F               	goto	u5480
  3854  020E                     u5481:
  3855  020E  281D               	goto	l7165
  3856  020F                     u5480:
  3857  020F  2A11               	goto	l7271
  3858                           	
  3859  0210                     l3277:	
  3860  0210  2A11               	goto	l7271
  3861                           	line	1527
  3862                           	
  3863  0211                     l3252:	
  3864                           	line	1530
  3865                           	
  3866  0211                     l7271:	
  3867  0211  1283               	bcf	status, 5	;RP0=0, select bank0
  3868  0212  1303               	bcf	status, 6	;RP1=0, select bank0
  3869  0213  084F               	movf	(sprintf@sp),w
  3870  0214  0084               	movwf	fsr0
  3871  0215  1383               	bcf	status, 7	;select IRP bank0
  3872  0216  0180               	clrf	indf
  3873  0217  2A18               	goto	l3278
  3874                           	line	1532
  3875                           	
  3876  0218                     l7273:	
  3877                           	line	1533
  3878                           ;	Return value of _sprintf is never used
  3879                           	
  3880  0218                     l3278:	
  3881  0218  0008               	return
  3882                           	opt stack 0
  3883                           GLOBAL	__end_of_sprintf
  3884  0219                     	__end_of_sprintf:
  3885 ;; =============== function _sprintf ends ============
  3886                           
  3887                           	signat	_sprintf,4698
  3888                           	global	___lwmod
  3889                           psect	text1145,local,class=CODE,delta=2
  3890                           global __ptext1145
  3891  074F                     __ptext1145:
  3892                           
  3893 ;; *************** function ___lwmod *****************
  3894 ;; Defined at:
  3895 ;;		line 5 in file "C:\Program Files\HI-TECH Software\PICC\9.82\sources\lwmod.c"
  3896 ;; Parameters:    Size  Location     Type
  3897 ;;  divisor         2   22[BANK0 ] unsigned int 
  3898 ;;  dividend        2   24[BANK0 ] unsigned int 
  3899 ;; Auto vars:     Size  Location     Type
  3900 ;;  counter         1   27[BANK0 ] unsigned char 
  3901 ;; Return value:  Size  Location     Type
  3902 ;;                  2   22[BANK0 ] unsigned int 
  3903 ;; Registers used:
  3904 ;;		wreg, status,2, status,0
  3905 ;; Tracked objects:
  3906 ;;		On entry : 0/0
  3907 ;;		On exit  : 0/0
  3908 ;;		Unchanged: 0/0
  3909 ;; Data sizes:     COMMON   BANK0   BANK1   BANK3   BANK2
  3910 ;;      Params:         0       4       0       0       0
  3911 ;;      Locals:         0       1       0       0       0
  3912 ;;      Temps:          0       1       0       0       0
  3913 ;;      Totals:         0       6       0       0       0
  3914 ;;Total ram usage:        6 bytes
  3915 ;; Hardware stack levels used:    1
  3916 ;; Hardware stack levels required when called:    5
  3917 ;; This function calls:
  3918 ;;		Nothing
  3919 ;; This function is called by:
  3920 ;;		_sprintf
  3921 ;; This function uses a non-reentrant model
  3922 ;;
  3923                           psect	text1145
  3924                           	file	"C:\Program Files\HI-TECH Software\PICC\9.82\sources\lwmod.c"
  3925                           	line	5
  3926                           	global	__size_of___lwmod
  3927  0046                     	__size_of___lwmod	equ	__end_of___lwmod-___lwmod
  3928                           	
  3929  074F                     ___lwmod:	
  3930                           	opt	stack 0
  3931                           ; Regs used in ___lwmod: [wreg+status,2+status,0]
  3932                           	line	8
  3933                           	
  3934  074F                     l7027:	
  3935  074F  1283               	bcf	status, 5	;RP0=0, select bank0
  3936  0750  1303               	bcf	status, 6	;RP1=0, select bank0
  3937  0751  0837               	movf	(___lwmod@divisor+1),w
  3938  0752  0436               	iorwf	(___lwmod@divisor),w
  3939  0753  1903               	skipnz
  3940  0754  2F56               	goto	u4961
  3941  0755  2F57               	goto	u4960
  3942  0756                     u4961:
  3943  0756  2F8D               	goto	l7045
  3944  0757                     u4960:
  3945                           	line	9
  3946                           	
  3947  0757                     l7029:	
  3948  0757  01BB               	clrf	(___lwmod@counter)
  3949  0758  1403               	bsf	status,0
  3950  0759  0DBB               	rlf	(___lwmod@counter),f
  3951                           	line	10
  3952  075A  2F67               	goto	l7035
  3953                           	
  3954  075B                     l4303:	
  3955                           	line	11
  3956                           	
  3957  075B                     l7031:	
  3958  075B  3001               	movlw	01h
  3959                           	
  3960  075C                     u4975:
  3961  075C  1003               	clrc
  3962  075D  0DB6               	rlf	(___lwmod@divisor),f
  3963  075E  0DB7               	rlf	(___lwmod@divisor+1),f
  3964  075F  3EFF               	addlw	-1
  3965  0760  1D03               	skipz
  3966  0761  2F5C               	goto	u4975
  3967                           	line	12
  3968                           	
  3969  0762                     l7033:	
  3970  0762  3001               	movlw	(01h)
  3971  0763  00BA               	movwf	(??___lwmod+0)+0
  3972  0764  083A               	movf	(??___lwmod+0)+0,w
  3973  0765  07BB               	addwf	(___lwmod@counter),f
  3974  0766  2F67               	goto	l7035
  3975                           	line	13
  3976                           	
  3977  0767                     l4302:	
  3978                           	line	10
  3979                           	
  3980  0767                     l7035:	
  3981  0767  1FB7               	btfss	(___lwmod@divisor+1),(15)&7
  3982  0768  2F6A               	goto	u4981
  3983  0769  2F6B               	goto	u4980
  3984  076A                     u4981:
  3985  076A  2F5B               	goto	l7031
  3986  076B                     u4980:
  3987  076B  2F6D               	goto	l7037
  3988                           	
  3989  076C                     l4304:	
  3990  076C  2F6D               	goto	l7037
  3991                           	line	14
  3992                           	
  3993  076D                     l4305:	
  3994                           	line	15
  3995                           	
  3996  076D                     l7037:	
  3997  076D  0837               	movf	(___lwmod@divisor+1),w
  3998  076E  0239               	subwf	(___lwmod@dividend+1),w
  3999  076F  1D03               	skipz
  4000  0770  2F73               	goto	u4995
  4001  0771  0836               	movf	(___lwmod@divisor),w
  4002  0772  0238               	subwf	(___lwmod@dividend),w
  4003  0773                     u4995:
  4004  0773  1C03               	skipc
  4005  0774  2F76               	goto	u4991
  4006  0775  2F77               	goto	u4990
  4007  0776                     u4991:
  4008  0776  2F7E               	goto	l7041
  4009  0777                     u4990:
  4010                           	line	16
  4011                           	
  4012  0777                     l7039:	
  4013  0777  0836               	movf	(___lwmod@divisor),w
  4014  0778  02B8               	subwf	(___lwmod@dividend),f
  4015  0779  0837               	movf	(___lwmod@divisor+1),w
  4016  077A  1C03               	skipc
  4017  077B  03B9               	decf	(___lwmod@dividend+1),f
  4018  077C  02B9               	subwf	(___lwmod@dividend+1),f
  4019  077D  2F7E               	goto	l7041
  4020                           	
  4021  077E                     l4306:	
  4022                           	line	17
  4023                           	
  4024  077E                     l7041:	
  4025  077E  3001               	movlw	01h
  4026                           	
  4027  077F                     u5005:
  4028  077F  1003               	clrc
  4029  0780  0CB7               	rrf	(___lwmod@divisor+1),f
  4030  0781  0CB6               	rrf	(___lwmod@divisor),f
  4031  0782  3EFF               	addlw	-1
  4032  0783  1D03               	skipz
  4033  0784  2F7F               	goto	u5005
  4034                           	line	18
  4035                           	
  4036  0785                     l7043:	
  4037  0785  3001               	movlw	low(01h)
  4038  0786  02BB               	subwf	(___lwmod@counter),f
  4039  0787  1D03               	btfss	status,2
  4040  0788  2F8A               	goto	u5011
  4041  0789  2F8B               	goto	u5010
  4042  078A                     u5011:
  4043  078A  2F6D               	goto	l7037
  4044  078B                     u5010:
  4045  078B  2F8D               	goto	l7045
  4046                           	
  4047  078C                     l4307:	
  4048  078C  2F8D               	goto	l7045
  4049                           	line	19
  4050                           	
  4051  078D                     l4301:	
  4052                           	line	20
  4053                           	
  4054  078D                     l7045:	
  4055  078D  0839               	movf	(___lwmod@dividend+1),w
  4056  078E  01B7               	clrf	(?___lwmod+1)
  4057  078F  07B7               	addwf	(?___lwmod+1)
  4058  0790  0838               	movf	(___lwmod@dividend),w
  4059  0791  01B6               	clrf	(?___lwmod)
  4060  0792  07B6               	addwf	(?___lwmod)
  4061                           
  4062  0793  2F94               	goto	l4308
  4063                           	
  4064  0794                     l7047:	
  4065                           	line	21
  4066                           	
  4067  0794                     l4308:	
  4068  0794  0008               	return
  4069                           	opt stack 0
  4070                           GLOBAL	__end_of___lwmod
  4071  0795                     	__end_of___lwmod:
  4072 ;; =============== function ___lwmod ends ============
  4073                           
  4074                           	signat	___lwmod,8314
  4075                           	global	___lwdiv
  4076                           psect	text1146,local,class=CODE,delta=2
  4077                           global __ptext1146
  4078  061B                     __ptext1146:
  4079                           
  4080 ;; *************** function ___lwdiv *****************
  4081 ;; Defined at:
  4082 ;;		line 5 in file "C:\Program Files\HI-TECH Software\PICC\9.82\sources\lwdiv.c"
  4083 ;; Parameters:    Size  Location     Type
  4084 ;;  divisor         2   14[BANK0 ] unsigned int 
  4085 ;;  dividend        2   16[BANK0 ] unsigned int 
  4086 ;; Auto vars:     Size  Location     Type
  4087 ;;  quotient        2   20[BANK0 ] unsigned int 
  4088 ;;  counter         1   19[BANK0 ] unsigned char 
  4089 ;; Return value:  Size  Location     Type
  4090 ;;                  2   14[BANK0 ] unsigned int 
  4091 ;; Registers used:
  4092 ;;		wreg, status,2, status,0
  4093 ;; Tracked objects:
  4094 ;;		On entry : 0/0
  4095 ;;		On exit  : 0/0
  4096 ;;		Unchanged: 0/0
  4097 ;; Data sizes:     COMMON   BANK0   BANK1   BANK3   BANK2
  4098 ;;      Params:         0       4       0       0       0
  4099 ;;      Locals:         0       3       0       0       0
  4100 ;;      Temps:          0       1       0       0       0
  4101 ;;      Totals:         0       8       0       0       0
  4102 ;;Total ram usage:        8 bytes
  4103 ;; Hardware stack levels used:    1
  4104 ;; Hardware stack levels required when called:    5
  4105 ;; This function calls:
  4106 ;;		Nothing
  4107 ;; This function is called by:
  4108 ;;		_sprintf
  4109 ;; This function uses a non-reentrant model
  4110 ;;
  4111                           psect	text1146
  4112                           	file	"C:\Program Files\HI-TECH Software\PICC\9.82\sources\lwdiv.c"
  4113                           	line	5
  4114                           	global	__size_of___lwdiv
  4115  0050                     	__size_of___lwdiv	equ	__end_of___lwdiv-___lwdiv
  4116                           	
  4117  061B                     ___lwdiv:	
  4118                           	opt	stack 0
  4119                           ; Regs used in ___lwdiv: [wreg+status,2+status,0]
  4120                           	line	9
  4121                           	
  4122  061B                     l7001:	
  4123  061B  1283               	bcf	status, 5	;RP0=0, select bank0
  4124  061C  1303               	bcf	status, 6	;RP1=0, select bank0
  4125  061D  01B4               	clrf	(___lwdiv@quotient)
  4126  061E  01B5               	clrf	(___lwdiv@quotient+1)
  4127                           	line	10
  4128                           	
  4129  061F                     l7003:	
  4130  061F  082F               	movf	(___lwdiv@divisor+1),w
  4131  0620  042E               	iorwf	(___lwdiv@divisor),w
  4132  0621  1903               	skipnz
  4133  0622  2E24               	goto	u4891
  4134  0623  2E25               	goto	u4890
  4135  0624                     u4891:
  4136  0624  2E63               	goto	l7023
  4137  0625                     u4890:
  4138                           	line	11
  4139                           	
  4140  0625                     l7005:	
  4141  0625  01B3               	clrf	(___lwdiv@counter)
  4142  0626  1403               	bsf	status,0
  4143  0627  0DB3               	rlf	(___lwdiv@counter),f
  4144                           	line	12
  4145  0628  2E35               	goto	l7011
  4146                           	
  4147  0629                     l4293:	
  4148                           	line	13
  4149                           	
  4150  0629                     l7007:	
  4151  0629  3001               	movlw	01h
  4152                           	
  4153  062A                     u4905:
  4154  062A  1003               	clrc
  4155  062B  0DAE               	rlf	(___lwdiv@divisor),f
  4156  062C  0DAF               	rlf	(___lwdiv@divisor+1),f
  4157  062D  3EFF               	addlw	-1
  4158  062E  1D03               	skipz
  4159  062F  2E2A               	goto	u4905
  4160                           	line	14
  4161                           	
  4162  0630                     l7009:	
  4163  0630  3001               	movlw	(01h)
  4164  0631  00B2               	movwf	(??___lwdiv+0)+0
  4165  0632  0832               	movf	(??___lwdiv+0)+0,w
  4166  0633  07B3               	addwf	(___lwdiv@counter),f
  4167  0634  2E35               	goto	l7011
  4168                           	line	15
  4169                           	
  4170  0635                     l4292:	
  4171                           	line	12
  4172                           	
  4173  0635                     l7011:	
  4174  0635  1FAF               	btfss	(___lwdiv@divisor+1),(15)&7
  4175  0636  2E38               	goto	u4911
  4176  0637  2E39               	goto	u4910
  4177  0638                     u4911:
  4178  0638  2E29               	goto	l7007
  4179  0639                     u4910:
  4180  0639  2E3B               	goto	l7013
  4181                           	
  4182  063A                     l4294:	
  4183  063A  2E3B               	goto	l7013
  4184                           	line	16
  4185                           	
  4186  063B                     l4295:	
  4187                           	line	17
  4188                           	
  4189  063B                     l7013:	
  4190  063B  3001               	movlw	01h
  4191                           	
  4192  063C                     u4925:
  4193  063C  1003               	clrc
  4194  063D  0DB4               	rlf	(___lwdiv@quotient),f
  4195  063E  0DB5               	rlf	(___lwdiv@quotient+1),f
  4196  063F  3EFF               	addlw	-1
  4197  0640  1D03               	skipz
  4198  0641  2E3C               	goto	u4925
  4199                           	line	18
  4200  0642  082F               	movf	(___lwdiv@divisor+1),w
  4201  0643  0231               	subwf	(___lwdiv@dividend+1),w
  4202  0644  1D03               	skipz
  4203  0645  2E48               	goto	u4935
  4204  0646  082E               	movf	(___lwdiv@divisor),w
  4205  0647  0230               	subwf	(___lwdiv@dividend),w
  4206  0648                     u4935:
  4207  0648  1C03               	skipc
  4208  0649  2E4B               	goto	u4931
  4209  064A  2E4C               	goto	u4930
  4210  064B                     u4931:
  4211  064B  2E54               	goto	l7019
  4212  064C                     u4930:
  4213                           	line	19
  4214                           	
  4215  064C                     l7015:	
  4216  064C  082E               	movf	(___lwdiv@divisor),w
  4217  064D  02B0               	subwf	(___lwdiv@dividend),f
  4218  064E  082F               	movf	(___lwdiv@divisor+1),w
  4219  064F  1C03               	skipc
  4220  0650  03B1               	decf	(___lwdiv@dividend+1),f
  4221  0651  02B1               	subwf	(___lwdiv@dividend+1),f
  4222                           	line	20
  4223                           	
  4224  0652                     l7017:	
  4225  0652  1434               	bsf	(___lwdiv@quotient)+(0/8),(0)&7
  4226  0653  2E54               	goto	l7019
  4227                           	line	21
  4228                           	
  4229  0654                     l4296:	
  4230                           	line	22
  4231                           	
  4232  0654                     l7019:	
  4233  0654  3001               	movlw	01h
  4234                           	
  4235  0655                     u4945:
  4236  0655  1003               	clrc
  4237  0656  0CAF               	rrf	(___lwdiv@divisor+1),f
  4238  0657  0CAE               	rrf	(___lwdiv@divisor),f
  4239  0658  3EFF               	addlw	-1
  4240  0659  1D03               	skipz
  4241  065A  2E55               	goto	u4945
  4242                           	line	23
  4243                           	
  4244  065B                     l7021:	
  4245  065B  3001               	movlw	low(01h)
  4246  065C  02B3               	subwf	(___lwdiv@counter),f
  4247  065D  1D03               	btfss	status,2
  4248  065E  2E60               	goto	u4951
  4249  065F  2E61               	goto	u4950
  4250  0660                     u4951:
  4251  0660  2E3B               	goto	l7013
  4252  0661                     u4950:
  4253  0661  2E63               	goto	l7023
  4254                           	
  4255  0662                     l4297:	
  4256  0662  2E63               	goto	l7023
  4257                           	line	24
  4258                           	
  4259  0663                     l4291:	
  4260                           	line	25
  4261                           	
  4262  0663                     l7023:	
  4263  0663  0835               	movf	(___lwdiv@quotient+1),w
  4264  0664  01AF               	clrf	(?___lwdiv+1)
  4265  0665  07AF               	addwf	(?___lwdiv+1)
  4266  0666  0834               	movf	(___lwdiv@quotient),w
  4267  0667  01AE               	clrf	(?___lwdiv)
  4268  0668  07AE               	addwf	(?___lwdiv)
  4269                           
  4270  0669  2E6A               	goto	l4298
  4271                           	
  4272  066A                     l7025:	
  4273                           	line	26
  4274                           	
  4275  066A                     l4298:	
  4276  066A  0008               	return
  4277                           	opt stack 0
  4278                           GLOBAL	__end_of___lwdiv
  4279  066B                     	__end_of___lwdiv:
  4280 ;; =============== function ___lwdiv ends ============
  4281                           
  4282                           	signat	___lwdiv,8314
  4283                           	global	___wmul
  4284                           psect	text1147,local,class=CODE,delta=2
  4285                           global __ptext1147
  4286  0F13                     __ptext1147:
  4287                           
  4288 ;; *************** function ___wmul *****************
  4289 ;; Defined at:
  4290 ;;		line 3 in file "C:\Program Files\HI-TECH Software\PICC\9.82\sources\wmul.c"
  4291 ;; Parameters:    Size  Location     Type
  4292 ;;  multiplier      2   14[BANK0 ] unsigned int 
  4293 ;;  multiplicand    2   16[BANK0 ] unsigned int 
  4294 ;; Auto vars:     Size  Location     Type
  4295 ;;  product         2   18[BANK0 ] unsigned int 
  4296 ;; Return value:  Size  Location     Type
  4297 ;;                  2   14[BANK0 ] unsigned int 
  4298 ;; Registers used:
  4299 ;;		wreg, status,2, status,0
  4300 ;; Tracked objects:
  4301 ;;		On entry : 0/0
  4302 ;;		On exit  : 0/0
  4303 ;;		Unchanged: 0/0
  4304 ;; Data sizes:     COMMON   BANK0   BANK1   BANK3   BANK2
  4305 ;;      Params:         0       4       0       0       0
  4306 ;;      Locals:         0       2       0       0       0
  4307 ;;      Temps:          0       0       0       0       0
  4308 ;;      Totals:         0       6       0       0       0
  4309 ;;Total ram usage:        6 bytes
  4310 ;; Hardware stack levels used:    1
  4311 ;; Hardware stack levels required when called:    5
  4312 ;; This function calls:
  4313 ;;		Nothing
  4314 ;; This function is called by:
  4315 ;;		_sprintf
  4316 ;; This function uses a non-reentrant model
  4317 ;;
  4318                           psect	text1147
  4319                           	file	"C:\Program Files\HI-TECH Software\PICC\9.82\sources\wmul.c"
  4320                           	line	3
  4321                           	global	__size_of___wmul
  4322  002C                     	__size_of___wmul	equ	__end_of___wmul-___wmul
  4323                           	
  4324  0F13                     ___wmul:	
  4325                           	opt	stack 0
  4326                           ; Regs used in ___wmul: [wreg+status,2+status,0]
  4327                           	line	4
  4328                           	
  4329  0F13                     l6989:	
  4330  0F13  1283               	bcf	status, 5	;RP0=0, select bank0
  4331  0F14  1303               	bcf	status, 6	;RP1=0, select bank0
  4332  0F15  01B2               	clrf	(___wmul@product)
  4333  0F16  01B3               	clrf	(___wmul@product+1)
  4334  0F17  2F18               	goto	l6991
  4335                           	line	6
  4336                           	
  4337  0F18                     l4285:	
  4338                           	line	7
  4339                           	
  4340  0F18                     l6991:	
  4341  0F18  1C2E               	btfss	(___wmul@multiplier),(0)&7
  4342  0F19  2F1B               	goto	u4851
  4343  0F1A  2F1C               	goto	u4850
  4344  0F1B                     u4851:
  4345  0F1B  2F22               	goto	l4286
  4346  0F1C                     u4850:
  4347                           	line	8
  4348                           	
  4349  0F1C                     l6993:	
  4350  0F1C  0830               	movf	(___wmul@multiplicand),w
  4351  0F1D  07B2               	addwf	(___wmul@product),f
  4352  0F1E  1803               	skipnc
  4353  0F1F  0AB3               	incf	(___wmul@product+1),f
  4354  0F20  0831               	movf	(___wmul@multiplicand+1),w
  4355  0F21  07B3               	addwf	(___wmul@product+1),f
  4356                           	
  4357  0F22                     l4286:	
  4358                           	line	9
  4359  0F22  3001               	movlw	01h
  4360                           	
  4361  0F23                     u4865:
  4362  0F23  1003               	clrc
  4363  0F24  0DB0               	rlf	(___wmul@multiplicand),f
  4364  0F25  0DB1               	rlf	(___wmul@multiplicand+1),f
  4365  0F26  3EFF               	addlw	-1
  4366  0F27  1D03               	skipz
  4367  0F28  2F23               	goto	u4865
  4368                           	line	10
  4369                           	
  4370  0F29                     l6995:	
  4371  0F29  3001               	movlw	01h
  4372                           	
  4373  0F2A                     u4875:
  4374  0F2A  1003               	clrc
  4375  0F2B  0CAF               	rrf	(___wmul@multiplier+1),f
  4376  0F2C  0CAE               	rrf	(___wmul@multiplier),f
  4377  0F2D  3EFF               	addlw	-1
  4378  0F2E  1D03               	skipz
  4379  0F2F  2F2A               	goto	u4875
  4380                           	line	11
  4381  0F30  082F               	movf	((___wmul@multiplier+1)),w
  4382  0F31  042E               	iorwf	((___wmul@multiplier)),w
  4383  0F32  1D03               	skipz
  4384  0F33  2F35               	goto	u4881
  4385  0F34  2F36               	goto	u4880
  4386  0F35                     u4881:
  4387  0F35  2F18               	goto	l6991
  4388  0F36                     u4880:
  4389  0F36  2F37               	goto	l6997
  4390                           	
  4391  0F37                     l4287:	
  4392                           	line	12
  4393                           	
  4394  0F37                     l6997:	
  4395  0F37  0833               	movf	(___wmul@product+1),w
  4396  0F38  01AF               	clrf	(?___wmul+1)
  4397  0F39  07AF               	addwf	(?___wmul+1)
  4398  0F3A  0832               	movf	(___wmul@product),w
  4399  0F3B  01AE               	clrf	(?___wmul)
  4400  0F3C  07AE               	addwf	(?___wmul)
  4401                           
  4402  0F3D  2F3E               	goto	l4288
  4403                           	
  4404  0F3E                     l6999:	
  4405                           	line	13
  4406                           	
  4407  0F3E                     l4288:	
  4408  0F3E  0008               	return
  4409                           	opt stack 0
  4410                           GLOBAL	__end_of___wmul
  4411  0F3F                     	__end_of___wmul:
  4412 ;; =============== function ___wmul ends ============
  4413                           
  4414                           	signat	___wmul,8314
  4415                           	global	_isdigit
  4416                           psect	text1148,local,class=CODE,delta=2
  4417                           global __ptext1148
  4418  0DB8                     __ptext1148:
  4419                           
  4420 ;; *************** function _isdigit *****************
  4421 ;; Defined at:
  4422 ;;		line 13 in file "C:\Program Files\HI-TECH Software\PICC\9.82\sources\isdigit.c"
  4423 ;; Parameters:    Size  Location     Type
  4424 ;;  c               1    wreg     unsigned char 
  4425 ;; Auto vars:     Size  Location     Type
  4426 ;;  c               1   15[BANK0 ] unsigned char 
  4427 ;; Return value:  Size  Location     Type
  4428 ;;		None               void
  4429 ;; Registers used:
  4430 ;;		wreg, status,2, status,0
  4431 ;; Tracked objects:
  4432 ;;		On entry : 0/0
  4433 ;;		On exit  : 0/0
  4434 ;;		Unchanged: 0/0
  4435 ;; Data sizes:     COMMON   BANK0   BANK1   BANK3   BANK2
  4436 ;;      Params:         0       0       0       0       0
  4437 ;;      Locals:         0       2       0       0       0
  4438 ;;      Temps:          0       0       0       0       0
  4439 ;;      Totals:         0       2       0       0       0
  4440 ;;Total ram usage:        2 bytes
  4441 ;; Hardware stack levels used:    1
  4442 ;; Hardware stack levels required when called:    5
  4443 ;; This function calls:
  4444 ;;		Nothing
  4445 ;; This function is called by:
  4446 ;;		_sprintf
  4447 ;; This function uses a non-reentrant model
  4448 ;;
  4449                           psect	text1148
  4450                           	file	"C:\Program Files\HI-TECH Software\PICC\9.82\sources\isdigit.c"
  4451                           	global	__size_of_isdigit
  4452  0017                     	__size_of_isdigit	equ	__end_of_isdigit-_isdigit
  4453                           	
  4454  0DB8                     _isdigit:	
  4455                           	opt	stack 0
  4456                           ; Regs used in _isdigit: [wreg+status,2+status,0]
  4457                           ;isdigit@c stored from wreg
  4458  0DB8  1283               	bcf	status, 5	;RP0=0, select bank0
  4459  0DB9  1303               	bcf	status, 6	;RP1=0, select bank0
  4460  0DBA  00AF               	movwf	(isdigit@c)
  4461                           	line	14
  4462                           	
  4463  0DBB                     l6977:	
  4464  0DBB  01AE               	clrf	(_isdigit$4891)
  4465                           	
  4466  0DBC                     l6979:	
  4467  0DBC  303A               	movlw	(03Ah)
  4468  0DBD  022F               	subwf	(isdigit@c),w
  4469  0DBE  1803               	skipnc
  4470  0DBF  2DC1               	goto	u4831
  4471  0DC0  2DC2               	goto	u4830
  4472  0DC1                     u4831:
  4473  0DC1  2DCC               	goto	l6985
  4474  0DC2                     u4830:
  4475                           	
  4476  0DC2                     l6981:	
  4477  0DC2  3030               	movlw	(030h)
  4478  0DC3  022F               	subwf	(isdigit@c),w
  4479  0DC4  1C03               	skipc
  4480  0DC5  2DC7               	goto	u4841
  4481  0DC6  2DC8               	goto	u4840
  4482  0DC7                     u4841:
  4483  0DC7  2DCC               	goto	l6985
  4484  0DC8                     u4840:
  4485                           	
  4486  0DC8                     l6983:	
  4487  0DC8  01AE               	clrf	(_isdigit$4891)
  4488  0DC9  1403               	bsf	status,0
  4489  0DCA  0DAE               	rlf	(_isdigit$4891),f
  4490  0DCB  2DCC               	goto	l6985
  4491                           	
  4492  0DCC                     l4262:	
  4493                           	
  4494  0DCC                     l6985:	
  4495  0DCC  0C2E               	rrf	(_isdigit$4891),w
  4496                           	
  4497  0DCD  2DCE               	goto	l4263
  4498                           	
  4499  0DCE                     l6987:	
  4500                           	line	15
  4501                           	
  4502  0DCE                     l4263:	
  4503  0DCE  0008               	return
  4504                           	opt stack 0
  4505                           GLOBAL	__end_of_isdigit
  4506  0DCF                     	__end_of_isdigit:
  4507 ;; =============== function _isdigit ends ============
  4508                           
  4509                           	signat	_isdigit,4216
  4510                           	global	_uart_putc
  4511                           psect	text1149,local,class=CODE,delta=2
  4512                           global __ptext1149
  4513  0D69                     __ptext1149:
  4514                           
  4515 ;; *************** function _uart_putc *****************
  4516 ;; Defined at:
  4517 ;;		line 107 in file "Z:\Users\ittus\Studying\FU\Fall 2014\ESH201\Assignment 2\uart.c"
  4518 ;; Parameters:    Size  Location     Type
  4519 ;;  c               1    wreg     unsigned char 
  4520 ;; Auto vars:     Size  Location     Type
  4521 ;;  c               1   14[BANK0 ] unsigned char 
  4522 ;; Return value:  Size  Location     Type
  4523 ;;		None               void
  4524 ;; Registers used:
  4525 ;;		wreg
  4526 ;; Tracked objects:
  4527 ;;		On entry : 0/0
  4528 ;;		On exit  : 0/0
  4529 ;;		Unchanged: 0/0
  4530 ;; Data sizes:     COMMON   BANK0   BANK1   BANK3   BANK2
  4531 ;;      Params:         0       0       0       0       0
  4532 ;;      Locals:         0       1       0       0       0
  4533 ;;      Temps:          0       0       0       0       0
  4534 ;;      Totals:         0       1       0       0       0
  4535 ;;Total ram usage:        1 bytes
  4536 ;; Hardware stack levels used:    1
  4537 ;; Hardware stack levels required when called:    5
  4538 ;; This function calls:
  4539 ;;		Nothing
  4540 ;; This function is called by:
  4541 ;;		_uart_puts
  4542 ;; This function uses a non-reentrant model
  4543 ;;
  4544                           psect	text1149
  4545                           	file	"Z:\Users\ittus\Studying\FU\Fall 2014\ESH201\Assignment 2\uart.c"
  4546                           	line	107
  4547                           	global	__size_of_uart_putc
  4548  000C                     	__size_of_uart_putc	equ	__end_of_uart_putc-_uart_putc
  4549                           	
  4550  0D69                     _uart_putc:	
  4551                           	opt	stack 0
  4552                           ; Regs used in _uart_putc: [wreg]
  4553                           ;uart_putc@c stored from wreg
  4554  0D69  1283               	bcf	status, 5	;RP0=0, select bank0
  4555  0D6A  1303               	bcf	status, 6	;RP1=0, select bank0
  4556  0D6B  00AE               	movwf	(uart_putc@c)
  4557                           	line	108
  4558                           	
  4559  0D6C                     l6973:	
  4560                           ;uart.c: 108: while(!TXIF);
  4561  0D6C  2D6D               	goto	l3201
  4562                           	
  4563  0D6D                     l3202:	
  4564                           	
  4565  0D6D                     l3201:	
  4566  0D6D  1E0C               	btfss	(100/8),(100)&7
  4567  0D6E  2D70               	goto	u4821
  4568  0D6F  2D71               	goto	u4820
  4569  0D70                     u4821:
  4570  0D70  2D6D               	goto	l3201
  4571  0D71                     u4820:
  4572  0D71  2D72               	goto	l6975
  4573                           	
  4574  0D72                     l3203:	
  4575                           	line	109
  4576                           	
  4577  0D72                     l6975:	
  4578                           ;uart.c: 109: TXREG = c;
  4579  0D72  082E               	movf	(uart_putc@c),w
  4580  0D73  0099               	movwf	(25)	;volatile
  4581                           	line	110
  4582                           	
  4583  0D74                     l3204:	
  4584  0D74  0008               	return
  4585                           	opt stack 0
  4586                           GLOBAL	__end_of_uart_putc
  4587  0D75                     	__end_of_uart_putc:
  4588 ;; =============== function _uart_putc ends ============
  4589                           
  4590                           	signat	_uart_putc,4216
  4591                           	global	_isprint
  4592                           psect	text1150,local,class=CODE,delta=2
  4593                           global __ptext1150
  4594  0DA1                     __ptext1150:
  4595                           
  4596 ;; *************** function _isprint *****************
  4597 ;; Defined at:
  4598 ;;		line 13 in file "C:\Program Files\HI-TECH Software\PICC\9.82\sources\isprint.c"
  4599 ;; Parameters:    Size  Location     Type
  4600 ;;  c               1    wreg     unsigned char 
  4601 ;; Auto vars:     Size  Location     Type
  4602 ;;  c               1   15[BANK0 ] unsigned char 
  4603 ;; Return value:  Size  Location     Type
  4604 ;;		None               void
  4605 ;; Registers used:
  4606 ;;		wreg, status,2, status,0
  4607 ;; Tracked objects:
  4608 ;;		On entry : 0/0
  4609 ;;		On exit  : 0/0
  4610 ;;		Unchanged: 0/0
  4611 ;; Data sizes:     COMMON   BANK0   BANK1   BANK3   BANK2
  4612 ;;      Params:         0       0       0       0       0
  4613 ;;      Locals:         0       2       0       0       0
  4614 ;;      Temps:          0       0       0       0       0
  4615 ;;      Totals:         0       2       0       0       0
  4616 ;;Total ram usage:        2 bytes
  4617 ;; Hardware stack levels used:    1
  4618 ;; Hardware stack levels required when called:    5
  4619 ;; This function calls:
  4620 ;;		Nothing
  4621 ;; This function is called by:
  4622 ;;		_lcd_putc
  4623 ;; This function uses a non-reentrant model
  4624 ;;
  4625                           psect	text1150
  4626                           	file	"C:\Program Files\HI-TECH Software\PICC\9.82\sources\isprint.c"
  4627                           	line	13
  4628                           	global	__size_of_isprint
  4629  0017                     	__size_of_isprint	equ	__end_of_isprint-_isprint
  4630                           	
  4631  0DA1                     _isprint:	
  4632 ;; hardware stack exceeded
  4633                           	opt	stack 0
  4634                           ; Regs used in _isprint: [wreg+status,2+status,0]
  4635                           ;isprint@c stored from wreg
  4636  0DA1  1283               	bcf	status, 5	;RP0=0, select bank0
  4637  0DA2  1303               	bcf	status, 6	;RP1=0, select bank0
  4638  0DA3  00AF               	movwf	(isprint@c)
  4639                           	line	14
  4640                           	
  4641  0DA4                     l6961:	
  4642  0DA4  01AE               	clrf	(_isprint$4894)
  4643                           	
  4644  0DA5                     l6963:	
  4645  0DA5  307F               	movlw	(07Fh)
  4646  0DA6  022F               	subwf	(isprint@c),w
  4647  0DA7  1803               	skipnc
  4648  0DA8  2DAA               	goto	u4801
  4649  0DA9  2DAB               	goto	u4800
  4650  0DAA                     u4801:
  4651  0DAA  2DB5               	goto	l6969
  4652  0DAB                     u4800:
  4653                           	
  4654  0DAB                     l6965:	
  4655  0DAB  3020               	movlw	(020h)
  4656  0DAC  022F               	subwf	(isprint@c),w
  4657  0DAD  1C03               	skipc
  4658  0DAE  2DB0               	goto	u4811
  4659  0DAF  2DB1               	goto	u4810
  4660  0DB0                     u4811:
  4661  0DB0  2DB5               	goto	l6969
  4662  0DB1                     u4810:
  4663                           	
  4664  0DB1                     l6967:	
  4665  0DB1  01AE               	clrf	(_isprint$4894)
  4666  0DB2  1403               	bsf	status,0
  4667  0DB3  0DAE               	rlf	(_isprint$4894),f
  4668  0DB4  2DB5               	goto	l6969
  4669                           	
  4670  0DB5                     l4267:	
  4671                           	
  4672  0DB5                     l6969:	
  4673  0DB5  0C2E               	rrf	(_isprint$4894),w
  4674                           	
  4675  0DB6  2DB7               	goto	l4268
  4676                           	
  4677  0DB7                     l6971:	
  4678                           	line	15
  4679                           	
  4680  0DB7                     l4268:	
  4681  0DB7  0008               	return
  4682                           	opt stack 0
  4683                           GLOBAL	__end_of_isprint
  4684  0DB8                     	__end_of_isprint:
  4685 ;; =============== function _isprint ends ============
  4686                           
  4687                           	signat	_isprint,4216
  4688                           	global	_uart_init
  4689                           psect	text1151,local,class=CODE,delta=2
  4690                           global __ptext1151
  4691  0DFF                     __ptext1151:
  4692                           
  4693 ;; *************** function _uart_init *****************
  4694 ;; Defined at:
  4695 ;;		line 5 in file "Z:\Users\ittus\Studying\FU\Fall 2014\ESH201\Assignment 2\uart.c"
  4696 ;; Parameters:    Size  Location     Type
  4697 ;;		None
  4698 ;; Auto vars:     Size  Location     Type
  4699 ;;		None
  4700 ;; Return value:  Size  Location     Type
  4701 ;;		None               void
  4702 ;; Registers used:
  4703 ;;		wreg
  4704 ;; Tracked objects:
  4705 ;;		On entry : 0/0
  4706 ;;		On exit  : 0/0
  4707 ;;		Unchanged: 0/0
  4708 ;; Data sizes:     COMMON   BANK0   BANK1   BANK3   BANK2
  4709 ;;      Params:         0       0       0       0       0
  4710 ;;      Locals:         0       0       0       0       0
  4711 ;;      Temps:          0       0       0       0       0
  4712 ;;      Totals:         0       0       0       0       0
  4713 ;;Total ram usage:        0 bytes
  4714 ;; Hardware stack levels used:    1
  4715 ;; Hardware stack levels required when called:    5
  4716 ;; This function calls:
  4717 ;;		Nothing
  4718 ;; This function is called by:
  4719 ;;		_main
  4720 ;; This function uses a non-reentrant model
  4721 ;;
  4722                           psect	text1151
  4723                           	file	"Z:\Users\ittus\Studying\FU\Fall 2014\ESH201\Assignment 2\uart.c"
  4724                           	line	5
  4725                           	global	__size_of_uart_init
  4726  001A                     	__size_of_uart_init	equ	__end_of_uart_init-_uart_init
  4727                           	
  4728  0DFF                     _uart_init:	
  4729                           	opt	stack 2
  4730                           ; Regs used in _uart_init: [wreg]
  4731                           	line	89
  4732                           	
  4733  0DFF                     l6389:	
  4734                           ;uart.c: 89: SPBRG=(4000000/(16UL * 9600))-1;
  4735  0DFF  3019               	movlw	(019h)
  4736  0E00  1683               	bsf	status, 5	;RP0=1, select bank1
  4737  0E01  1303               	bcf	status, 6	;RP1=0, select bank1
  4738  0E02  0099               	movwf	(153)^080h	;volatile
  4739                           	line	90
  4740                           	
  4741  0E03                     l6391:	
  4742                           ;uart.c: 90: BRGH=1;
  4743  0E03  1518               	bsf	(1218/8)^080h,(1218)&7
  4744                           	line	93
  4745                           	
  4746  0E04                     l6393:	
  4747                           ;uart.c: 93: SYNC=0;
  4748  0E04  1218               	bcf	(1220/8)^080h,(1220)&7
  4749                           	line	94
  4750                           	
  4751  0E05                     l6395:	
  4752                           ;uart.c: 94: SPEN=1;
  4753  0E05  1283               	bcf	status, 5	;RP0=0, select bank0
  4754  0E06  1303               	bcf	status, 6	;RP1=0, select bank0
  4755  0E07  1798               	bsf	(199/8),(199)&7
  4756                           	line	95
  4757                           	
  4758  0E08                     l6397:	
  4759                           ;uart.c: 95: CREN=1;
  4760  0E08  1618               	bsf	(196/8),(196)&7
  4761                           	line	96
  4762                           	
  4763  0E09                     l6399:	
  4764                           ;uart.c: 96: SREN=0;
  4765  0E09  1298               	bcf	(197/8),(197)&7
  4766                           	line	97
  4767                           	
  4768  0E0A                     l6401:	
  4769                           ;uart.c: 97: TXIE=0;
  4770  0E0A  1683               	bsf	status, 5	;RP0=1, select bank1
  4771  0E0B  1303               	bcf	status, 6	;RP1=0, select bank1
  4772  0E0C  120C               	bcf	(1124/8)^080h,(1124)&7
  4773                           	line	98
  4774                           	
  4775  0E0D                     l6403:	
  4776                           ;uart.c: 98: RCIE=0;
  4777  0E0D  128C               	bcf	(1125/8)^080h,(1125)&7
  4778                           	line	99
  4779                           	
  4780  0E0E                     l6405:	
  4781                           ;uart.c: 99: TX9=0;
  4782  0E0E  1318               	bcf	(1222/8)^080h,(1222)&7
  4783                           	line	100
  4784                           	
  4785  0E0F                     l6407:	
  4786                           ;uart.c: 100: RX9=0;
  4787  0E0F  1283               	bcf	status, 5	;RP0=0, select bank0
  4788  0E10  1303               	bcf	status, 6	;RP1=0, select bank0
  4789  0E11  1318               	bcf	(198/8),(198)&7
  4790                           	line	101
  4791                           	
  4792  0E12                     l6409:	
  4793                           ;uart.c: 101: TXEN=0;
  4794  0E12  1683               	bsf	status, 5	;RP0=1, select bank1
  4795  0E13  1303               	bcf	status, 6	;RP1=0, select bank1
  4796  0E14  1298               	bcf	(1221/8)^080h,(1221)&7
  4797                           	line	102
  4798                           	
  4799  0E15                     l6411:	
  4800                           ;uart.c: 102: TXEN=1;
  4801  0E15  1698               	bsf	(1221/8)^080h,(1221)&7
  4802                           	line	103
  4803                           	
  4804  0E16                     l6413:	
  4805                           ;uart.c: 103: TRISC6 = 0;
  4806  0E16  1307               	bcf	(1086/8)^080h,(1086)&7
  4807                           	line	104
  4808                           	
  4809  0E17                     l6415:	
  4810                           ;uart.c: 104: TRISC7 = 1;
  4811  0E17  1787               	bsf	(1087/8)^080h,(1087)&7
  4812                           	line	105
  4813                           	
  4814  0E18                     l3198:	
  4815  0E18  0008               	return
  4816                           	opt stack 0
  4817                           GLOBAL	__end_of_uart_init
  4818  0E19                     	__end_of_uart_init:
  4819 ;; =============== function _uart_init ends ============
  4820                           
  4821                           	signat	_uart_init,88
  4822                           	global	_set_counter
  4823                           psect	text1152,local,class=CODE,delta=2
  4824                           global __ptext1152
  4825  0D4D                     __ptext1152:
  4826                           
  4827 ;; *************** function _set_counter *****************
  4828 ;; Defined at:
  4829 ;;		line 18 in file "Z:\Users\ittus\Studying\FU\Fall 2014\ESH201\Assignment 2\C_LCD.c"
  4830 ;; Parameters:    Size  Location     Type
  4831 ;;		None
  4832 ;; Auto vars:     Size  Location     Type
  4833 ;;		None
  4834 ;; Return value:  Size  Location     Type
  4835 ;;		None               void
  4836 ;; Registers used:
  4837 ;;		wreg, status,2
  4838 ;; Tracked objects:
  4839 ;;		On entry : 0/0
  4840 ;;		On exit  : 0/0
  4841 ;;		Unchanged: 0/0
  4842 ;; Data sizes:     COMMON   BANK0   BANK1   BANK3   BANK2
  4843 ;;      Params:         0       0       0       0       0
  4844 ;;      Locals:         0       0       0       0       0
  4845 ;;      Temps:          0       0       0       0       0
  4846 ;;      Totals:         0       0       0       0       0
  4847 ;;Total ram usage:        0 bytes
  4848 ;; Hardware stack levels used:    1
  4849 ;; Hardware stack levels required when called:    5
  4850 ;; This function calls:
  4851 ;;		Nothing
  4852 ;; This function is called by:
  4853 ;;		_enable_interrupt
  4854 ;; This function uses a non-reentrant model
  4855 ;;
  4856                           psect	text1152
  4857                           	file	"Z:\Users\ittus\Studying\FU\Fall 2014\ESH201\Assignment 2\C_LCD.c"
  4858                           	line	18
  4859                           	global	__size_of_set_counter
  4860  0006                     	__size_of_set_counter	equ	__end_of_set_counter-_set_counter
  4861                           	
  4862  0D4D                     _set_counter:	
  4863                           	opt	stack 1
  4864                           ; Regs used in _set_counter: [wreg+status,2]
  4865                           	line	19
  4866                           	
  4867  0D4D                     l6323:	
  4868                           ;C_LCD.c: 19: TMR1H = 0x80;
  4869  0D4D  3080               	movlw	(080h)
  4870  0D4E  1283               	bcf	status, 5	;RP0=0, select bank0
  4871  0D4F  1303               	bcf	status, 6	;RP1=0, select bank0
  4872  0D50  008F               	movwf	(15)	;volatile
  4873                           	line	20
  4874                           	
  4875  0D51                     l6325:	
  4876                           ;C_LCD.c: 20: TMR1L = 0x00;
  4877  0D51  018E               	clrf	(14)	;volatile
  4878                           	line	21
  4879                           	
  4880  0D52                     l1052:	
  4881  0D52  0008               	return
  4882                           	opt stack 0
  4883                           GLOBAL	__end_of_set_counter
  4884  0D53                     	__end_of_set_counter:
  4885 ;; =============== function _set_counter ends ============
  4886                           
  4887                           	signat	_set_counter,88
  4888                           	global	_inter_func
  4889                           psect	text1153,local,class=CODE,delta=2
  4890                           global __ptext1153
  4891  032D                     __ptext1153:
  4892                           
  4893 ;; *************** function _inter_func *****************
  4894 ;; Defined at:
  4895 ;;		line 39 in file "Z:\Users\ittus\Studying\FU\Fall 2014\ESH201\Assignment 2\C_LCD.c"
  4896 ;; Parameters:    Size  Location     Type
  4897 ;;		None
  4898 ;; Auto vars:     Size  Location     Type
  4899 ;;  input           8    6[BANK0 ] unsigned char [8]
  4900 ;; Return value:  Size  Location     Type
  4901 ;;		None               void
  4902 ;; Registers used:
  4903 ;;		wreg, fsr0l, fsr0h, status,2, status,0, btemp+1, pclath, cstack
  4904 ;; Tracked objects:
  4905 ;;		On entry : 0/0
  4906 ;;		On exit  : 0/0
  4907 ;;		Unchanged: 0/0
  4908 ;; Data sizes:     COMMON   BANK0   BANK1   BANK3   BANK2
  4909 ;;      Params:         0       0       0       0       0
  4910 ;;      Locals:         0       8       0       0       0
  4911 ;;      Temps:          0       6       0       0       0
  4912 ;;      Totals:         0      14       0       0       0
  4913 ;;Total ram usage:       14 bytes
  4914 ;; Hardware stack levels used:    1
  4915 ;; Hardware stack levels required when called:    4
  4916 ;; This function calls:
  4917 ;;		i1_set_counter
  4918 ;;		_uart_gets
  4919 ;;		_strcmp
  4920 ;;		i1_lcd_clear
  4921 ;;		i1_uart_puts
  4922 ;;		i1_lcd_puts
  4923 ;;		i1___wmul
  4924 ;; This function is called by:
  4925 ;;		Interrupt level 1
  4926 ;; This function uses a non-reentrant model
  4927 ;;
  4928                           psect	text1153
  4929                           	file	"Z:\Users\ittus\Studying\FU\Fall 2014\ESH201\Assignment 2\C_LCD.c"
  4930                           	line	39
  4931                           	global	__size_of_inter_func
  4932  0112                     	__size_of_inter_func	equ	__end_of_inter_func-_inter_func
  4933                           	
  4934  032D                     _inter_func:	
  4935 ;; hardware stack exceeded
  4936                           	opt	stack 0
  4937                           ; Regs used in _inter_func: [wreg-fsr0h+status,2+status,0+btemp+1+pclath+cstack]
  4938                           psect	intentry,class=CODE,delta=2
  4939                           global __pintentry
  4940  0004                     __pintentry:
  4941                           global interrupt_function
  4942  0004                     interrupt_function:
  4943                           	global saved_w
  4944  007E                     	saved_w	set	btemp+0
  4945  0004  00FE               	movwf	saved_w
  4946  0005  0E03               	swapf	status,w
  4947  0006  1283               	bcf	status, 5	;RP0=0, select bank0
  4948  0007  1303               	bcf	status, 6	;RP1=0, select bank0
  4949  0008  00A2               	movwf	(??_inter_func+2)
  4950  0009  0804               	movf	fsr0,w
  4951  000A  00A3               	movwf	(??_inter_func+3)
  4952  000B  080A               	movf	pclath,w
  4953  000C  00A4               	movwf	(??_inter_func+4)
  4954  000D  087F               	movf	btemp+1,w
  4955  000E  00A5               	movwf	(??_inter_func+5)
  4956  000F  120A  118A  2B2D   	ljmp	_inter_func
  4957                           psect	text1153
  4958                           	line	40
  4959                           	
  4960  032D                     i1l6919:	
  4961                           ;C_LCD.c: 40: if(TMR1IE && TMR1IF){
  4962  032D  1683               	bsf	status, 5	;RP0=1, select bank1
  4963  032E  1303               	bcf	status, 6	;RP1=0, select bank1
  4964  032F  1C0C               	btfss	(1120/8)^080h,(1120)&7
  4965  0330  2B32               	goto	u472_21
  4966  0331  2B33               	goto	u472_20
  4967  0332                     u472_21:
  4968  0332  2B90               	goto	i1l6945
  4969  0333                     u472_20:
  4970                           	
  4971  0333                     i1l6921:	
  4972  0333  1283               	bcf	status, 5	;RP0=0, select bank0
  4973  0334  1303               	bcf	status, 6	;RP1=0, select bank0
  4974  0335  1C0C               	btfss	(96/8),(96)&7
  4975  0336  2B38               	goto	u473_21
  4976  0337  2B39               	goto	u473_20
  4977  0338                     u473_21:
  4978  0338  2B90               	goto	i1l6945
  4979  0339                     u473_20:
  4980                           	line	42
  4981                           	
  4982  0339                     i1l6923:	
  4983                           ;C_LCD.c: 42: second = second + 1;
  4984  0339  085F               	movf	(_second),w
  4985  033A  3E01               	addlw	low(01h)
  4986  033B  00DF               	movwf	(_second)
  4987  033C  0860               	movf	(_second+1),w
  4988  033D  1803               	skipnc
  4989  033E  3E01               	addlw	1
  4990  033F  3E00               	addlw	high(01h)
  4991  0340  00E0               	movwf	1+(_second)
  4992                           	line	43
  4993                           	
  4994  0341                     i1l6925:	
  4995                           ;C_LCD.c: 43: if(second > 59){
  4996  0341  0860               	movf	(_second+1),w
  4997  0342  3A80               	xorlw	80h
  4998  0343  00FF               	movwf	btemp+1
  4999  0344  3080               	movlw	(high(03Ch))^80h
  5000  0345  027F               	subwf	btemp+1,w
  5001  0346  1D03               	skipz
  5002  0347  2B4A               	goto	u474_25
  5003  0348  303C               	movlw	low(03Ch)
  5004  0349  025F               	subwf	(_second),w
  5005  034A                     u474_25:
  5006                           
  5007  034A  1C03               	skipc
  5008  034B  2B4D               	goto	u474_21
  5009  034C  2B4E               	goto	u474_20
  5010  034D                     u474_21:
  5011  034D  2B87               	goto	i1l6941
  5012  034E                     u474_20:
  5013                           	line	44
  5014                           	
  5015  034E                     i1l6927:	
  5016                           ;C_LCD.c: 44: second = 0;
  5017  034E  1283               	bcf	status, 5	;RP0=0, select bank0
  5018  034F  1303               	bcf	status, 6	;RP1=0, select bank0
  5019  0350  01DF               	clrf	(_second)
  5020  0351  01E0               	clrf	(_second+1)
  5021                           	line	45
  5022                           	
  5023  0352                     i1l6929:	
  5024                           ;C_LCD.c: 45: minute = minute + 1;
  5025  0352  085D               	movf	(_minute),w
  5026  0353  3E01               	addlw	low(01h)
  5027  0354  00DD               	movwf	(_minute)
  5028  0355  085E               	movf	(_minute+1),w
  5029  0356  1803               	skipnc
  5030  0357  3E01               	addlw	1
  5031  0358  3E00               	addlw	high(01h)
  5032  0359  00DE               	movwf	1+(_minute)
  5033                           	line	46
  5034                           	
  5035  035A                     i1l6931:	
  5036                           ;C_LCD.c: 46: if(minute > 59){
  5037  035A  085E               	movf	(_minute+1),w
  5038  035B  3A80               	xorlw	80h
  5039  035C  00FF               	movwf	btemp+1
  5040  035D  3080               	movlw	(high(03Ch))^80h
  5041  035E  027F               	subwf	btemp+1,w
  5042  035F  1D03               	skipz
  5043  0360  2B63               	goto	u475_25
  5044  0361  303C               	movlw	low(03Ch)
  5045  0362  025D               	subwf	(_minute),w
  5046  0363                     u475_25:
  5047                           
  5048  0363  1C03               	skipc
  5049  0364  2B66               	goto	u475_21
  5050  0365  2B67               	goto	u475_20
  5051  0366                     u475_21:
  5052  0366  2B87               	goto	i1l6941
  5053  0367                     u475_20:
  5054                           	line	47
  5055                           	
  5056  0367                     i1l6933:	
  5057                           ;C_LCD.c: 47: minute = 0;
  5058  0367  1283               	bcf	status, 5	;RP0=0, select bank0
  5059  0368  1303               	bcf	status, 6	;RP1=0, select bank0
  5060  0369  01DD               	clrf	(_minute)
  5061  036A  01DE               	clrf	(_minute+1)
  5062                           	line	48
  5063                           	
  5064  036B                     i1l6935:	
  5065                           ;C_LCD.c: 48: hour = hour + 1;
  5066  036B  085B               	movf	(_hour),w
  5067  036C  3E01               	addlw	low(01h)
  5068  036D  00DB               	movwf	(_hour)
  5069  036E  085C               	movf	(_hour+1),w
  5070  036F  1803               	skipnc
  5071  0370  3E01               	addlw	1
  5072  0371  3E00               	addlw	high(01h)
  5073  0372  00DC               	movwf	1+(_hour)
  5074                           	line	49
  5075                           	
  5076  0373                     i1l6937:	
  5077                           ;C_LCD.c: 49: if(hour > 23){
  5078  0373  085C               	movf	(_hour+1),w
  5079  0374  3A80               	xorlw	80h
  5080  0375  00FF               	movwf	btemp+1
  5081  0376  3080               	movlw	(high(018h))^80h
  5082  0377  027F               	subwf	btemp+1,w
  5083  0378  1D03               	skipz
  5084  0379  2B7C               	goto	u476_25
  5085  037A  3018               	movlw	low(018h)
  5086  037B  025B               	subwf	(_hour),w
  5087  037C                     u476_25:
  5088                           
  5089  037C  1C03               	skipc
  5090  037D  2B7F               	goto	u476_21
  5091  037E  2B80               	goto	u476_20
  5092  037F                     u476_21:
  5093  037F  2B87               	goto	i1l6941
  5094  0380                     u476_20:
  5095                           	line	50
  5096                           	
  5097  0380                     i1l6939:	
  5098                           ;C_LCD.c: 50: hour = 0;
  5099  0380  1283               	bcf	status, 5	;RP0=0, select bank0
  5100  0381  1303               	bcf	status, 6	;RP1=0, select bank0
  5101  0382  01DB               	clrf	(_hour)
  5102  0383  01DC               	clrf	(_hour+1)
  5103  0384  2B87               	goto	i1l6941
  5104                           	line	51
  5105                           	
  5106  0385                     i1l1061:	
  5107  0385  2B87               	goto	i1l6941
  5108                           	line	52
  5109                           	
  5110  0386                     i1l1060:	
  5111  0386  2B87               	goto	i1l6941
  5112                           	line	53
  5113                           	
  5114  0387                     i1l1059:	
  5115                           	line	54
  5116                           	
  5117  0387                     i1l6941:	
  5118                           ;C_LCD.c: 51: }
  5119                           ;C_LCD.c: 52: }
  5120                           ;C_LCD.c: 53: }
  5121                           ;C_LCD.c: 54: TMR1IF = 0;
  5122  0387  1283               	bcf	status, 5	;RP0=0, select bank0
  5123  0388  1303               	bcf	status, 6	;RP1=0, select bank0
  5124  0389  100C               	bcf	(96/8),(96)&7
  5125                           	line	55
  5126                           	
  5127  038A                     i1l6943:	
  5128                           ;C_LCD.c: 55: set_counter();
  5129  038A  120A  158A  2547   	fcall	i1_set_counter
              120A  118A         
  5130  038F  2B90               	goto	i1l6945
  5131                           	line	56
  5132                           	
  5133  0390                     i1l1058:	
  5134                           	line	59
  5135                           	
  5136  0390                     i1l6945:	
  5137                           ;C_LCD.c: 56: }
  5138                           ;C_LCD.c: 58: char input[8];
  5139                           ;C_LCD.c: 59: if(RCIE && RCIF){
  5140  0390  1683               	bsf	status, 5	;RP0=1, select bank1
  5141  0391  1303               	bcf	status, 6	;RP1=0, select bank1
  5142  0392  1E8C               	btfss	(1125/8)^080h,(1125)&7
  5143  0393  2B95               	goto	u477_21
  5144  0394  2B96               	goto	u477_20
  5145  0395                     u477_21:
  5146  0395  2C33               	goto	i1l1065
  5147  0396                     u477_20:
  5148                           	
  5149  0396                     i1l6947:	
  5150  0396  1283               	bcf	status, 5	;RP0=0, select bank0
  5151  0397  1303               	bcf	status, 6	;RP1=0, select bank0
  5152  0398  1E8C               	btfss	(101/8),(101)&7
  5153  0399  2B9B               	goto	u478_21
  5154  039A  2B9C               	goto	u478_20
  5155  039B                     u478_21:
  5156  039B  2C33               	goto	i1l1065
  5157  039C                     u478_20:
  5158                           	line	61
  5159                           	
  5160  039C                     i1l6949:	
  5161                           ;C_LCD.c: 61: uart_gets(&input);
  5162  039C  3026               	movlw	(inter_func@input)&0ffh
  5163  039D  120A  158A  2619   	fcall	_uart_gets
              120A  118A         
  5164                           	line	62
  5165                           ;C_LCD.c: 62: if(strcmp(input,"pic16f887?") == 0){
  5166  03A2  3035               	movlw	((STR_2-__stringbase))&0ffh
  5167  03A3  1283               	bcf	status, 5	;RP0=0, select bank0
  5168  03A4  1303               	bcf	status, 6	;RP1=0, select bank0
  5169  03A5  00A0               	movwf	(??_inter_func+0)+0
  5170  03A6  0820               	movf	(??_inter_func+0)+0,w
  5171  03A7  00F0               	movwf	(?_strcmp)
  5172  03A8  3026               	movlw	(inter_func@input)&0ffh
  5173  03A9  120A  158A  276B   	fcall	_strcmp
              120A  118A         
  5174  03AE  0871               	movf	((1+(?_strcmp))),w
  5175  03AF  0470               	iorwf	((0+(?_strcmp))),w
  5176  03B0  1D03               	skipz
  5177  03B1  2BB3               	goto	u479_21
  5178  03B2  2BB4               	goto	u479_20
  5179  03B3                     u479_21:
  5180  03B3  2BC6               	goto	i1l6957
  5181  03B4                     u479_20:
  5182                           	line	63
  5183                           	
  5184  03B4                     i1l6951:	
  5185                           ;C_LCD.c: 63: lcd_clear();
  5186  03B4  120A  158A  258A   	fcall	i1_lcd_clear
              120A  118A         
  5187                           	line	64
  5188                           	
  5189  03B9                     i1l6953:	
  5190                           ;C_LCD.c: 64: uart_puts("I am 16f887\n");
  5191  03B9  301B               	movlw	((STR_3-__stringbase))&0ffh
  5192  03BA  120A  158A  2692   	fcall	i1_uart_puts
              120A  118A         
  5193                           	line	65
  5194                           	
  5195  03BF                     i1l6955:	
  5196                           ;C_LCD.c: 65: lcd_puts("Connecting..");
  5197  03BF  3028               	movlw	((STR_4-__stringbase))&0ffh
  5198  03C0  120A  158A  26BD   	fcall	i1_lcd_puts
              120A  118A         
  5199                           	line	66
  5200                           ;C_LCD.c: 66: }else{
  5201  03C5  2C2F               	goto	i1l6959
  5202                           	
  5203  03C6                     i1l1063:	
  5204                           	line	67
  5205                           	
  5206  03C6                     i1l6957:	
  5207                           ;C_LCD.c: 67: hour = (input[0]-'0')*10 + input[1]-'0';
  5208  03C6  1283               	bcf	status, 5	;RP0=0, select bank0
  5209  03C7  1303               	bcf	status, 6	;RP1=0, select bank0
  5210  03C8  0826               	movf	(inter_func@input),w
  5211  03C9  3ED0               	addlw	low(0FFD0h)
  5212  03CA  00F0               	movwf	(?i1___wmul)
  5213  03CB  30FF               	movlw	high(0FFD0h)
  5214  03CC  1803               	skipnc
  5215  03CD  3000               	movlw	(high(0FFD0h)+1)&0ffh
  5216  03CE  00F1               	movwf	((?i1___wmul))+1
  5217  03CF  300A               	movlw	low(0Ah)
  5218  03D0  00F2               	movwf	0+(?i1___wmul)+02h
  5219  03D1  3000               	movlw	high(0Ah)
  5220  03D2  00F3               	movwf	(0+(?i1___wmul)+02h)+1
  5221  03D3  120A  158A  2668   	fcall	i1___wmul
              120A  118A         
  5222  03D8  1283               	bcf	status, 5	;RP0=0, select bank0
  5223  03D9  1303               	bcf	status, 6	;RP1=0, select bank0
  5224  03DA  0827               	movf	0+(inter_func@input)+01h,w
  5225  03DB  0770               	addwf	(0+(?i1___wmul)),w
  5226  03DC  00A0               	movwf	(??_inter_func+0)+0
  5227  03DD  3000               	movlw	0
  5228  03DE  1803               	skipnc
  5229  03DF  3001               	movlw	1
  5230  03E0  0771               	addwf	(1+(?i1___wmul)),w
  5231  03E1  00A1               	movwf	1+(??_inter_func+0)+0
  5232  03E2  0820               	movf	0+(??_inter_func+0)+0,w
  5233  03E3  3ED0               	addlw	low(0FFD0h)
  5234  03E4  00DB               	movwf	(_hour)
  5235  03E5  0821               	movf	1+(??_inter_func+0)+0,w
  5236  03E6  1803               	skipnc
  5237  03E7  3E01               	addlw	1
  5238  03E8  3EFF               	addlw	high(0FFD0h)
  5239  03E9  00DC               	movwf	1+(_hour)
  5240                           	line	68
  5241                           ;C_LCD.c: 68: minute = (input[3]-'0')*10 + input[4]-'0';
  5242  03EA  0829               	movf	0+(inter_func@input)+03h,w
  5243  03EB  3ED0               	addlw	low(0FFD0h)
  5244  03EC  00F0               	movwf	(?i1___wmul)
  5245  03ED  30FF               	movlw	high(0FFD0h)
  5246  03EE  1803               	skipnc
  5247  03EF  3000               	movlw	(high(0FFD0h)+1)&0ffh
  5248  03F0  00F1               	movwf	((?i1___wmul))+1
  5249  03F1  300A               	movlw	low(0Ah)
  5250  03F2  00F2               	movwf	0+(?i1___wmul)+02h
  5251  03F3  3000               	movlw	high(0Ah)
  5252  03F4  00F3               	movwf	(0+(?i1___wmul)+02h)+1
  5253  03F5  120A  158A  2668   	fcall	i1___wmul
              120A  118A         
  5254  03FA  1283               	bcf	status, 5	;RP0=0, select bank0
  5255  03FB  1303               	bcf	status, 6	;RP1=0, select bank0
  5256  03FC  082A               	movf	0+(inter_func@input)+04h,w
  5257  03FD  0770               	addwf	(0+(?i1___wmul)),w
  5258  03FE  00A0               	movwf	(??_inter_func+0)+0
  5259  03FF  3000               	movlw	0
  5260  0400  1803               	skipnc
  5261  0401  3001               	movlw	1
  5262  0402  0771               	addwf	(1+(?i1___wmul)),w
  5263  0403  00A1               	movwf	1+(??_inter_func+0)+0
  5264  0404  0820               	movf	0+(??_inter_func+0)+0,w
  5265  0405  3ED0               	addlw	low(0FFD0h)
  5266  0406  00DD               	movwf	(_minute)
  5267  0407  0821               	movf	1+(??_inter_func+0)+0,w
  5268  0408  1803               	skipnc
  5269  0409  3E01               	addlw	1
  5270  040A  3EFF               	addlw	high(0FFD0h)
  5271  040B  00DE               	movwf	1+(_minute)
  5272                           	line	69
  5273                           ;C_LCD.c: 69: second = (input[6]-'0')*10 + input[7]-'0';
  5274  040C  082C               	movf	0+(inter_func@input)+06h,w
  5275  040D  3ED0               	addlw	low(0FFD0h)
  5276  040E  00F0               	movwf	(?i1___wmul)
  5277  040F  30FF               	movlw	high(0FFD0h)
  5278  0410  1803               	skipnc
  5279  0411  3000               	movlw	(high(0FFD0h)+1)&0ffh
  5280  0412  00F1               	movwf	((?i1___wmul))+1
  5281  0413  300A               	movlw	low(0Ah)
  5282  0414  00F2               	movwf	0+(?i1___wmul)+02h
  5283  0415  3000               	movlw	high(0Ah)
  5284  0416  00F3               	movwf	(0+(?i1___wmul)+02h)+1
  5285  0417  120A  158A  2668   	fcall	i1___wmul
              120A  118A         
  5286  041C  1283               	bcf	status, 5	;RP0=0, select bank0
  5287  041D  1303               	bcf	status, 6	;RP1=0, select bank0
  5288  041E  082D               	movf	0+(inter_func@input)+07h,w
  5289  041F  0770               	addwf	(0+(?i1___wmul)),w
  5290  0420  00A0               	movwf	(??_inter_func+0)+0
  5291  0421  3000               	movlw	0
  5292  0422  1803               	skipnc
  5293  0423  3001               	movlw	1
  5294  0424  0771               	addwf	(1+(?i1___wmul)),w
  5295  0425  00A1               	movwf	1+(??_inter_func+0)+0
  5296  0426  0820               	movf	0+(??_inter_func+0)+0,w
  5297  0427  3ED0               	addlw	low(0FFD0h)
  5298  0428  00DF               	movwf	(_second)
  5299  0429  0821               	movf	1+(??_inter_func+0)+0,w
  5300  042A  1803               	skipnc
  5301  042B  3E01               	addlw	1
  5302  042C  3EFF               	addlw	high(0FFD0h)
  5303  042D  00E0               	movwf	1+(_second)
  5304  042E  2C2F               	goto	i1l6959
  5305                           	line	70
  5306                           	
  5307  042F                     i1l1064:	
  5308                           	line	71
  5309                           	
  5310  042F                     i1l6959:	
  5311                           ;C_LCD.c: 70: }
  5312                           ;C_LCD.c: 71: RCIF = 0;
  5313  042F  1283               	bcf	status, 5	;RP0=0, select bank0
  5314  0430  1303               	bcf	status, 6	;RP1=0, select bank0
  5315  0431  128C               	bcf	(101/8),(101)&7
  5316  0432  2C33               	goto	i1l1065
  5317                           	line	72
  5318                           	
  5319  0433                     i1l1062:	
  5320                           	line	73
  5321                           	
  5322  0433                     i1l1065:	
  5323  0433  1283               	bcf	status, 5	;RP0=0, select bank0
  5324  0434  0825               	movf	(??_inter_func+5),w
  5325  0435  00FF               	movwf	btemp+1
  5326  0436  0824               	movf	(??_inter_func+4),w
  5327  0437  008A               	movwf	pclath
  5328  0438  0823               	movf	(??_inter_func+3),w
  5329  0439  0084               	movwf	fsr0
  5330  043A  0E22               	swapf	(??_inter_func+2)^00h,w
  5331  043B  0083               	movwf	status
  5332  043C  0EFE               	swapf	saved_w,f
  5333  043D  0E7E               	swapf	saved_w,w
  5334  043E  0009               	retfie
  5335                           	opt stack 0
  5336                           GLOBAL	__end_of_inter_func
  5337  043F                     	__end_of_inter_func:
  5338 ;; =============== function _inter_func ends ============
  5339                           
  5340                           	signat	_inter_func,88
  5341                           	global	i1_lcd_puts
  5342                           psect	text1154,local,class=CODE,delta=2
  5343                           global __ptext1154
  5344  0EBD                     __ptext1154:
  5345                           
  5346 ;; *************** function i1_lcd_puts *****************
  5347 ;; Defined at:
  5348 ;;		line 175 in file "Z:\Users\ittus\Studying\FU\Fall 2014\ESH201\Assignment 2\lcd.c"
  5349 ;; Parameters:    Size  Location     Type
  5350 ;;  lcd_puts        1    wreg     PTR const unsigned char 
  5351 ;;		 -> STR_4(13), 
  5352 ;; Auto vars:     Size  Location     Type
  5353 ;;  lcd_puts        1   11[COMMON] PTR const unsigned char 
  5354 ;;		 -> STR_4(13), 
  5355 ;; Return value:  Size  Location     Type
  5356 ;;		None               void
  5357 ;; Registers used:
  5358 ;;		wreg, fsr0l, fsr0h, status,2, status,0, btemp+1, pclath, cstack
  5359 ;; Tracked objects:
  5360 ;;		On entry : 0/0
  5361 ;;		On exit  : 0/0
  5362 ;;		Unchanged: 0/0
  5363 ;; Data sizes:     COMMON   BANK0   BANK1   BANK3   BANK2
  5364 ;;      Params:         0       0       0       0       0
  5365 ;;      Locals:         1       0       0       0       0
  5366 ;;      Temps:          0       0       0       0       0
  5367 ;;      Totals:         1       0       0       0       0
  5368 ;;Total ram usage:        1 bytes
  5369 ;; Hardware stack levels used:    1
  5370 ;; Hardware stack levels required when called:    3
  5371 ;; This function calls:
  5372 ;;		i1_lcd_putc
  5373 ;; This function is called by:
  5374 ;;		_inter_func
  5375 ;; This function uses a non-reentrant model
  5376 ;;
  5377                           psect	text1154
  5378                           	file	"Z:\Users\ittus\Studying\FU\Fall 2014\ESH201\Assignment 2\lcd.c"
  5379                           	line	175
  5380                           	global	__size_ofi1_lcd_puts
  5381  002B                     	__size_ofi1_lcd_puts	equ	__end_ofi1_lcd_puts-i1_lcd_puts
  5382                           	
  5383  0EBD                     i1_lcd_puts:	
  5384 ;; hardware stack exceeded
  5385                           	opt	stack 0
  5386                           ; Regs used in i1_lcd_puts: [wreg-fsr0h+status,2+status,0+btemp+1+pclath+cstack]
  5387                           ;i1lcd_puts@s stored from wreg
  5388  0EBD  00FB               	movwf	(i1lcd_puts@s)
  5389                           	line	176
  5390                           	
  5391  0EBE                     i1l7127:	
  5392                           ;lcd.c: 176: while(*s){
  5393  0EBE  2ED6               	goto	i1l7133
  5394                           	
  5395  0EBF                     i1l2165:	
  5396                           	line	177
  5397                           	
  5398  0EBF                     i1l7129:	
  5399                           ;lcd.c: 177: lcd_putc(*s++);
  5400  0EBF  087C               	movf	(i1lcd_puts@s+1),w
  5401  0EC0  1283               	bcf	status, 5	;RP0=0, select bank0
  5402  0EC1  1303               	bcf	status, 6	;RP1=0, select bank0
  5403  0EC2  00FF               	movwf	btemp+1
  5404  0EC3  087B               	movf	(i1lcd_puts@s),w
  5405  0EC4  0084               	movwf	fsr0
  5406  0EC5  120A  118A  2700   	fcall	stringtab
              120A  158A         
  5407  0ECA  120A  118A  266B   	fcall	i1_lcd_putc
              120A  158A         
  5408                           	
  5409  0ECF                     i1l7131:	
  5410  0ECF  3001               	movlw	low(01h)
  5411  0ED0  07FB               	addwf	(i1lcd_puts@s),f
  5412  0ED1  1803               	skipnc
  5413  0ED2  0AFC               	incf	(i1lcd_puts@s+1),f
  5414  0ED3  3000               	movlw	high(01h)
  5415  0ED4  07FC               	addwf	(i1lcd_puts@s+1),f
  5416  0ED5  2ED6               	goto	i1l7133
  5417                           	line	178
  5418                           	
  5419  0ED6                     i1l2164:	
  5420                           	line	176
  5421                           	
  5422  0ED6                     i1l7133:	
  5423  0ED6  087C               	movf	(i1lcd_puts@s+1),w
  5424  0ED7  1283               	bcf	status, 5	;RP0=0, select bank0
  5425  0ED8  1303               	bcf	status, 6	;RP1=0, select bank0
  5426  0ED9  00FF               	movwf	btemp+1
  5427  0EDA  087B               	movf	(i1lcd_puts@s),w
  5428  0EDB  0084               	movwf	fsr0
  5429  0EDC  120A  118A  2700   	fcall	stringtab
              120A  158A         
  5430  0EE1  3800               	iorlw	0
  5431  0EE2  1D03               	skipz
  5432  0EE3  2EE5               	goto	u524_21
  5433  0EE4  2EE6               	goto	u524_20
  5434  0EE5                     u524_21:
  5435  0EE5  2EBF               	goto	i1l7129
  5436  0EE6                     u524_20:
  5437  0EE6  2EE7               	goto	i1l2167
  5438                           	
  5439  0EE7                     i1l2166:	
  5440                           	line	179
  5441                           	
  5442  0EE7                     i1l2167:	
  5443  0EE7  0008               	return
  5444                           	opt stack 0
  5445                           GLOBAL	__end_ofi1_lcd_puts
  5446  0EE8                     	__end_ofi1_lcd_puts:
  5447 ;; =============== function i1_lcd_puts ends ============
  5448                           
  5449                           	signat	i1_lcd_puts,88
  5450                           	global	i1_lcd_putc
  5451                           psect	text1155,local,class=CODE,delta=2
  5452                           global __ptext1155
  5453  066B                     __ptext1155:
  5454                           
  5455 ;; *************** function i1_lcd_putc *****************
  5456 ;; Defined at:
  5457 ;;		line 143 in file "Z:\Users\ittus\Studying\FU\Fall 2014\ESH201\Assignment 2\lcd.c"
  5458 ;; Parameters:    Size  Location     Type
  5459 ;;  lcd_putc        1    wreg     unsigned char 
  5460 ;; Auto vars:     Size  Location     Type
  5461 ;;  lcd_putc        1   10[COMMON] unsigned char 
  5462 ;; Return value:  Size  Location     Type
  5463 ;;		None               void
  5464 ;; Registers used:
  5465 ;;		wreg, fsr0l, fsr0h, status,2, status,0, pclath, cstack
  5466 ;; Tracked objects:
  5467 ;;		On entry : 0/0
  5468 ;;		On exit  : 0/0
  5469 ;;		Unchanged: 0/0
  5470 ;; Data sizes:     COMMON   BANK0   BANK1   BANK3   BANK2
  5471 ;;      Params:         0       0       0       0       0
  5472 ;;      Locals:         1       0       0       0       0
  5473 ;;      Temps:          1       0       0       0       0
  5474 ;;      Totals:         2       0       0       0       0
  5475 ;;Total ram usage:        2 bytes
  5476 ;; Hardware stack levels used:    1
  5477 ;; Hardware stack levels required when called:    2
  5478 ;; This function calls:
  5479 ;;		i1_lcd_put_byte
  5480 ;;		i1_lcd_busy
  5481 ;;		i1_lcd_gotoxy
  5482 ;;		i1_isprint
  5483 ;; This function is called by:
  5484 ;;		i1_lcd_puts
  5485 ;; This function uses a non-reentrant model
  5486 ;;
  5487                           psect	text1155
  5488                           	file	"Z:\Users\ittus\Studying\FU\Fall 2014\ESH201\Assignment 2\lcd.c"
  5489                           	line	143
  5490                           	global	__size_ofi1_lcd_putc
  5491  0050                     	__size_ofi1_lcd_putc	equ	__end_ofi1_lcd_putc-i1_lcd_putc
  5492                           	
  5493  066B                     i1_lcd_putc:	
  5494 ;; hardware stack exceeded
  5495                           	opt	stack 0
  5496                           ; Regs used in i1_lcd_putc: [wreg-fsr0h+status,2+status,0+pclath+cstack]
  5497                           ;i1lcd_putc@c stored from wreg
  5498  066B  00FA               	movwf	(i1lcd_putc@c)
  5499                           	line	144
  5500                           	
  5501  066C                     i1l7099:	
  5502                           ;lcd.c: 144: switch(c){
  5503  066C  2EB2               	goto	i1l7115
  5504                           	line	145
  5505                           ;lcd.c: 145: case '\f':
  5506                           	
  5507  066D                     i1l2142:	
  5508                           	line	146
  5509                           	
  5510  066D                     i1l7101:	
  5511                           ;lcd.c: 146: lcd_put_byte(0, 1);
  5512  066D  01F0               	clrf	(?i1_lcd_put_byte)
  5513  066E  1403               	bsf	status,0
  5514  066F  0DF0               	rlf	(?i1_lcd_put_byte),f
  5515  0670  3000               	movlw	(0)
  5516  0671  120A  118A  2501   	fcall	i1_lcd_put_byte
              120A  118A         
  5517                           	line	147
  5518                           ;lcd.c: 147: while(lcd_busy());
  5519  0676  2E78               	goto	i1l7103
  5520                           	
  5521  0677                     i1l2144:	
  5522  0677  2E78               	goto	i1l7103
  5523                           	
  5524  0678                     i1l2143:	
  5525                           	
  5526  0678                     i1l7103:	
  5527  0678  120A  158A  279A   	fcall	i1_lcd_busy
              120A  118A         
  5528  067D  3800               	iorlw	0
  5529  067E  1D03               	skipz
  5530  067F  2E81               	goto	u519_21
  5531  0680  2E82               	goto	u519_20
  5532  0681                     u519_21:
  5533  0681  2E78               	goto	i1l7103
  5534  0682                     u519_20:
  5535  0682  2EBA               	goto	i1l2153
  5536                           	
  5537  0683                     i1l2145:	
  5538                           	line	148
  5539                           ;lcd.c: 148: break;
  5540  0683  2EBA               	goto	i1l2153
  5541                           	line	149
  5542                           ;lcd.c: 149: case '\n':
  5543                           	
  5544  0684                     i1l2147:	
  5545                           	line	150
  5546                           	
  5547  0684                     i1l7105:	
  5548                           ;lcd.c: 150: lcd_gotoxy(0, 1);
  5549  0684  01F5               	clrf	(?i1_lcd_gotoxy)
  5550  0685  1403               	bsf	status,0
  5551  0686  0DF5               	rlf	(?i1_lcd_gotoxy),f
  5552  0687  3000               	movlw	(0)
  5553  0688  120A  158A  263F   	fcall	i1_lcd_gotoxy
              120A  118A         
  5554                           	line	151
  5555                           ;lcd.c: 151: break;
  5556  068D  2EBA               	goto	i1l2153
  5557                           	line	152
  5558                           ;lcd.c: 152: default:
  5559                           	
  5560  068E                     i1l2148:	
  5561                           	line	153
  5562                           	
  5563  068E                     i1l7107:	
  5564                           ;lcd.c: 153: if(isprint(c)){
  5565  068E  087A               	movf	(i1lcd_putc@c),w
  5566  068F  120A  158A  2575   	fcall	i1_isprint
              120A  118A         
  5567  0694  1C03               	btfss	status,0
  5568  0695  2E97               	goto	u520_21
  5569  0696  2E98               	goto	u520_20
  5570  0697                     u520_21:
  5571  0697  2EBA               	goto	i1l2153
  5572  0698                     u520_20:
  5573                           	line	154
  5574                           	
  5575  0698                     i1l7109:	
  5576                           ;lcd.c: 154: lcd_put_byte(1, c);
  5577  0698  087A               	movf	(i1lcd_putc@c),w
  5578  0699  00F9               	movwf	(??i1_lcd_putc+0)+0
  5579  069A  0879               	movf	(??i1_lcd_putc+0)+0,w
  5580  069B  00F0               	movwf	(?i1_lcd_put_byte)
  5581  069C  3001               	movlw	(01h)
  5582  069D  120A  118A  2501   	fcall	i1_lcd_put_byte
              120A  118A         
  5583                           	line	155
  5584                           ;lcd.c: 155: while(lcd_busy());
  5585  06A2  2EA4               	goto	i1l7111
  5586                           	
  5587  06A3                     i1l2151:	
  5588  06A3  2EA4               	goto	i1l7111
  5589                           	
  5590  06A4                     i1l2150:	
  5591                           	
  5592  06A4                     i1l7111:	
  5593  06A4  120A  158A  279A   	fcall	i1_lcd_busy
              120A  118A         
  5594  06A9  3800               	iorlw	0
  5595  06AA  1D03               	skipz
  5596  06AB  2EAD               	goto	u521_21
  5597  06AC  2EAE               	goto	u521_20
  5598  06AD                     u521_21:
  5599  06AD  2EA4               	goto	i1l7111
  5600  06AE                     u521_20:
  5601  06AE  2EBA               	goto	i1l2153
  5602                           	
  5603  06AF                     i1l2152:	
  5604  06AF  2EBA               	goto	i1l2153
  5605                           	line	156
  5606                           	
  5607  06B0                     i1l2149:	
  5608                           	line	157
  5609                           ;lcd.c: 156: }
  5610                           ;lcd.c: 157: break;
  5611  06B0  2EBA               	goto	i1l2153
  5612                           	line	158
  5613                           	
  5614  06B1                     i1l7113:	
  5615                           ;lcd.c: 158: }
  5616  06B1  2EBA               	goto	i1l2153
  5617                           	line	144
  5618                           	
  5619  06B2                     i1l2141:	
  5620                           	
  5621  06B2                     i1l7115:	
  5622  06B2  087A               	movf	(i1lcd_putc@c),w
  5623                           	; Switch size 1, requested type "space"
  5624                           ; Number of cases is 2, Range of values is 10 to 12
  5625                           ; switch strategies available:
  5626                           ; Name         Instructions Cycles
  5627                           ; simple_byte            7     4 (average)
  5628                           ; direct_byte           20    11 (fixed)
  5629                           ; jumptable            263     9 (fixed)
  5630                           ;	Chosen strategy is simple_byte
  5631                           
  5632                           	opt asmopt_off
  5633  06B3  3A0A               	xorlw	10^0	; case 10
  5634  06B4  1903               	skipnz
  5635  06B5  2E84               	goto	i1l7105
  5636  06B6  3A06               	xorlw	12^10	; case 12
  5637  06B7  1903               	skipnz
  5638  06B8  2E6D               	goto	i1l7101
  5639  06B9  2E8E               	goto	i1l7107
  5640                           	opt asmopt_on
  5641                           
  5642                           	line	158
  5643                           	
  5644  06BA                     i1l2146:	
  5645                           	line	159
  5646                           	
  5647  06BA                     i1l2153:	
  5648  06BA  0008               	return
  5649                           	opt stack 0
  5650                           GLOBAL	__end_ofi1_lcd_putc
  5651  06BB                     	__end_ofi1_lcd_putc:
  5652 ;; =============== function i1_lcd_putc ends ============
  5653                           
  5654                           	signat	i1_lcd_putc,88
  5655                           	global	i1_lcd_clear
  5656                           psect	text1156,local,class=CODE,delta=2
  5657                           global __ptext1156
  5658  0D8A                     __ptext1156:
  5659                           
  5660 ;; *************** function i1_lcd_clear *****************
  5661 ;; Defined at:
  5662 ;;		line 182 in file "Z:\Users\ittus\Studying\FU\Fall 2014\ESH201\Assignment 2\lcd.c"
  5663 ;; Parameters:    Size  Location     Type
  5664 ;;		None
  5665 ;; Auto vars:     Size  Location     Type
  5666 ;;		None
  5667 ;; Return value:  Size  Location     Type
  5668 ;;		None               void
  5669 ;; Registers used:
  5670 ;;		wreg, status,2, status,0, pclath, cstack
  5671 ;; Tracked objects:
  5672 ;;		On entry : 0/0
  5673 ;;		On exit  : 0/0
  5674 ;;		Unchanged: 0/0
  5675 ;; Data sizes:     COMMON   BANK0   BANK1   BANK3   BANK2
  5676 ;;      Params:         0       0       0       0       0
  5677 ;;      Locals:         0       0       0       0       0
  5678 ;;      Temps:          0       0       0       0       0
  5679 ;;      Totals:         0       0       0       0       0
  5680 ;;Total ram usage:        0 bytes
  5681 ;; Hardware stack levels used:    1
  5682 ;; Hardware stack levels required when called:    1
  5683 ;; This function calls:
  5684 ;;		i1_lcd_put_byte
  5685 ;;		i1_lcd_busy
  5686 ;; This function is called by:
  5687 ;;		_inter_func
  5688 ;; This function uses a non-reentrant model
  5689 ;;
  5690                           psect	text1156
  5691                           	file	"Z:\Users\ittus\Studying\FU\Fall 2014\ESH201\Assignment 2\lcd.c"
  5692                           	line	182
  5693                           	global	__size_ofi1_lcd_clear
  5694  0017                     	__size_ofi1_lcd_clear	equ	__end_ofi1_lcd_clear-i1_lcd_clear
  5695                           	
  5696  0D8A                     i1_lcd_clear:	
  5697                           	opt	stack 0
  5698                           ; Regs used in i1_lcd_clear: [wreg+status,2+status,0+pclath+cstack]
  5699                           	line	183
  5700                           	
  5701  0D8A                     i1l7135:	
  5702                           ;lcd.c: 183: lcd_put_byte(0,0x01);
  5703  0D8A  01F0               	clrf	(?i1_lcd_put_byte)
  5704  0D8B  1403               	bsf	status,0
  5705  0D8C  0DF0               	rlf	(?i1_lcd_put_byte),f
  5706  0D8D  3000               	movlw	(0)
  5707  0D8E  120A  118A  2501   	fcall	i1_lcd_put_byte
              120A  158A         
  5708                           	line	184
  5709                           ;lcd.c: 184: while(lcd_busy());
  5710  0D93  2D95               	goto	i1l7137
  5711                           	
  5712  0D94                     i1l2171:	
  5713  0D94  2D95               	goto	i1l7137
  5714                           	
  5715  0D95                     i1l2170:	
  5716                           	
  5717  0D95                     i1l7137:	
  5718  0D95  120A  158A  279A   	fcall	i1_lcd_busy
              120A  158A         
  5719  0D9A  3800               	iorlw	0
  5720  0D9B  1D03               	skipz
  5721  0D9C  2D9E               	goto	u525_21
  5722  0D9D  2D9F               	goto	u525_20
  5723  0D9E                     u525_21:
  5724  0D9E  2D95               	goto	i1l7137
  5725  0D9F                     u525_20:
  5726  0D9F  2DA0               	goto	i1l2173
  5727                           	
  5728  0DA0                     i1l2172:	
  5729                           	line	185
  5730                           	
  5731  0DA0                     i1l2173:	
  5732  0DA0  0008               	return
  5733                           	opt stack 0
  5734                           GLOBAL	__end_ofi1_lcd_clear
  5735  0DA1                     	__end_ofi1_lcd_clear:
  5736 ;; =============== function i1_lcd_clear ends ============
  5737                           
  5738                           	signat	i1_lcd_clear,88
  5739                           	global	i1_lcd_gotoxy
  5740                           psect	text1157,local,class=CODE,delta=2
  5741                           global __ptext1157
  5742  0E3F                     __ptext1157:
  5743                           
  5744 ;; *************** function i1_lcd_gotoxy *****************
  5745 ;; Defined at:
  5746 ;;		line 162 in file "Z:\Users\ittus\Studying\FU\Fall 2014\ESH201\Assignment 2\lcd.c"
  5747 ;; Parameters:    Size  Location     Type
  5748 ;;  lcd_gotoxy      1    wreg     unsigned char 
  5749 ;;  lcd_gotoxy      1    5[COMMON] unsigned char 
  5750 ;; Auto vars:     Size  Location     Type
  5751 ;;  lcd_gotoxy      1    7[COMMON] unsigned char 
  5752 ;;  lcd_gotoxy      1    8[COMMON] unsigned char 
  5753 ;; Return value:  Size  Location     Type
  5754 ;;		None               void
  5755 ;; Registers used:
  5756 ;;		wreg, status,2, status,0, pclath, cstack
  5757 ;; Tracked objects:
  5758 ;;		On entry : 0/0
  5759 ;;		On exit  : 0/0
  5760 ;;		Unchanged: 0/0
  5761 ;; Data sizes:     COMMON   BANK0   BANK1   BANK3   BANK2
  5762 ;;      Params:         1       0       0       0       0
  5763 ;;      Locals:         2       0       0       0       0
  5764 ;;      Temps:          1       0       0       0       0
  5765 ;;      Totals:         4       0       0       0       0
  5766 ;;Total ram usage:        4 bytes
  5767 ;; Hardware stack levels used:    1
  5768 ;; Hardware stack levels required when called:    1
  5769 ;; This function calls:
  5770 ;;		i1_lcd_put_byte
  5771 ;;		i1_lcd_busy
  5772 ;; This function is called by:
  5773 ;;		i1_lcd_putc
  5774 ;; This function uses a non-reentrant model
  5775 ;;
  5776                           psect	text1157
  5777                           	file	"Z:\Users\ittus\Studying\FU\Fall 2014\ESH201\Assignment 2\lcd.c"
  5778                           	line	162
  5779                           	global	__size_ofi1_lcd_gotoxy
  5780  0029                     	__size_ofi1_lcd_gotoxy	equ	__end_ofi1_lcd_gotoxy-i1_lcd_gotoxy
  5781                           	
  5782  0E3F                     i1_lcd_gotoxy:	
  5783 ;; hardware stack exceeded
  5784                           	opt	stack 0
  5785                           ; Regs used in i1_lcd_gotoxy: [wreg+status,2+status,0+pclath+cstack]
  5786                           ;i1lcd_gotoxy@col stored from wreg
  5787                           	line	165
  5788  0E3F  00F7               	movwf	(i1lcd_gotoxy@col)
  5789                           	
  5790  0E40                     i1l7117:	
  5791                           ;lcd.c: 163: unsigned char address;
  5792                           ;lcd.c: 165: if(row!=0)
  5793  0E40  0875               	movf	(i1lcd_gotoxy@row),w
  5794  0E41  1D03               	skipz
  5795  0E42  2E44               	goto	u522_20
  5796  0E43  2E49               	goto	i1l2156
  5797  0E44                     u522_20:
  5798                           	line	166
  5799                           	
  5800  0E44                     i1l7119:	
  5801                           ;lcd.c: 166: address=0x40;
  5802  0E44  3040               	movlw	(040h)
  5803  0E45  00F6               	movwf	(??i1_lcd_gotoxy+0)+0
  5804  0E46  0876               	movf	(??i1_lcd_gotoxy+0)+0,w
  5805  0E47  00F8               	movwf	(i1lcd_gotoxy@address)
  5806  0E48  2E4B               	goto	i1l7121
  5807                           	line	167
  5808                           	
  5809  0E49                     i1l2156:	
  5810                           	line	168
  5811                           ;lcd.c: 167: else
  5812                           ;lcd.c: 168: address=0;
  5813  0E49  01F8               	clrf	(i1lcd_gotoxy@address)
  5814  0E4A  2E4B               	goto	i1l7121
  5815                           	
  5816  0E4B                     i1l2157:	
  5817                           	line	170
  5818                           	
  5819  0E4B                     i1l7121:	
  5820                           ;lcd.c: 170: address += col;
  5821  0E4B  0877               	movf	(i1lcd_gotoxy@col),w
  5822  0E4C  00F6               	movwf	(??i1_lcd_gotoxy+0)+0
  5823  0E4D  0876               	movf	(??i1_lcd_gotoxy+0)+0,w
  5824  0E4E  07F8               	addwf	(i1lcd_gotoxy@address),f
  5825                           	line	171
  5826                           	
  5827  0E4F                     i1l7123:	
  5828                           ;lcd.c: 171: lcd_put_byte(0,0x80|address);
  5829  0E4F  0878               	movf	(i1lcd_gotoxy@address),w
  5830  0E50  3880               	iorlw	080h
  5831  0E51  00F6               	movwf	(??i1_lcd_gotoxy+0)+0
  5832  0E52  0876               	movf	(??i1_lcd_gotoxy+0)+0,w
  5833  0E53  00F0               	movwf	(?i1_lcd_put_byte)
  5834  0E54  3000               	movlw	(0)
  5835  0E55  120A  118A  2501   	fcall	i1_lcd_put_byte
              120A  158A         
  5836                           	line	172
  5837                           ;lcd.c: 172: while(lcd_busy());
  5838  0E5A  2E5C               	goto	i1l7125
  5839                           	
  5840  0E5B                     i1l2159:	
  5841  0E5B  2E5C               	goto	i1l7125
  5842                           	
  5843  0E5C                     i1l2158:	
  5844                           	
  5845  0E5C                     i1l7125:	
  5846  0E5C  120A  158A  279A   	fcall	i1_lcd_busy
              120A  158A         
  5847  0E61  3800               	iorlw	0
  5848  0E62  1D03               	skipz
  5849  0E63  2E65               	goto	u523_21
  5850  0E64  2E66               	goto	u523_20
  5851  0E65                     u523_21:
  5852  0E65  2E5C               	goto	i1l7125
  5853  0E66                     u523_20:
  5854  0E66  2E67               	goto	i1l2161
  5855                           	
  5856  0E67                     i1l2160:	
  5857                           	line	173
  5858                           	
  5859  0E67                     i1l2161:	
  5860  0E67  0008               	return
  5861                           	opt stack 0
  5862                           GLOBAL	__end_ofi1_lcd_gotoxy
  5863  0E68                     	__end_ofi1_lcd_gotoxy:
  5864 ;; =============== function i1_lcd_gotoxy ends ============
  5865                           
  5866                           	signat	i1_lcd_gotoxy,88
  5867                           	global	i1_uart_puts
  5868                           psect	text1158,local,class=CODE,delta=2
  5869                           global __ptext1158
  5870  0E92                     __ptext1158:
  5871                           
  5872 ;; *************** function i1_uart_puts *****************
  5873 ;; Defined at:
  5874 ;;		line 112 in file "Z:\Users\ittus\Studying\FU\Fall 2014\ESH201\Assignment 2\uart.c"
  5875 ;; Parameters:    Size  Location     Type
  5876 ;;  uart_puts       1    wreg     PTR const unsigned char 
  5877 ;;		 -> STR_3(13), 
  5878 ;; Auto vars:     Size  Location     Type
  5879 ;;  uart_puts       1    1[COMMON] PTR const unsigned char 
  5880 ;;		 -> STR_3(13), 
  5881 ;; Return value:  Size  Location     Type
  5882 ;;		None               void
  5883 ;; Registers used:
  5884 ;;		wreg, fsr0l, fsr0h, status,2, status,0, btemp+1, pclath, cstack
  5885 ;; Tracked objects:
  5886 ;;		On entry : 0/0
  5887 ;;		On exit  : 0/0
  5888 ;;		Unchanged: 0/0
  5889 ;; Data sizes:     COMMON   BANK0   BANK1   BANK3   BANK2
  5890 ;;      Params:         0       0       0       0       0
  5891 ;;      Locals:         1       0       0       0       0
  5892 ;;      Temps:          0       0       0       0       0
  5893 ;;      Totals:         1       0       0       0       0
  5894 ;;Total ram usage:        1 bytes
  5895 ;; Hardware stack levels used:    1
  5896 ;; Hardware stack levels required when called:    1
  5897 ;; This function calls:
  5898 ;;		i1_uart_putc
  5899 ;; This function is called by:
  5900 ;;		_inter_func
  5901 ;; This function uses a non-reentrant model
  5902 ;;
  5903                           psect	text1158
  5904                           	file	"Z:\Users\ittus\Studying\FU\Fall 2014\ESH201\Assignment 2\uart.c"
  5905                           	line	112
  5906                           	global	__size_ofi1_uart_puts
  5907  002B                     	__size_ofi1_uart_puts	equ	__end_ofi1_uart_puts-i1_uart_puts
  5908                           	
  5909  0E92                     i1_uart_puts:	
  5910 ;; using string table level
  5911                           	opt	stack 1
  5912                           ; Regs used in i1_uart_puts: [wreg-fsr0h+status,2+status,0+btemp+1+pclath+cstack]
  5913                           ;i1uart_puts@s stored from wreg
  5914  0E92  00F1               	movwf	(i1uart_puts@s)
  5915                           	line	113
  5916                           	
  5917  0E93                     i1l7143:	
  5918                           ;uart.c: 113: while(*s != '\0'){
  5919  0E93  2EAB               	goto	i1l7149
  5920                           	
  5921  0E94                     i1l3208:	
  5922                           	line	114
  5923                           	
  5924  0E94                     i1l7145:	
  5925                           ;uart.c: 114: uart_putc(*s);
  5926  0E94  0872               	movf	(i1uart_puts@s+1),w
  5927  0E95  1283               	bcf	status, 5	;RP0=0, select bank0
  5928  0E96  1303               	bcf	status, 6	;RP1=0, select bank0
  5929  0E97  00FF               	movwf	btemp+1
  5930  0E98  0871               	movf	(i1uart_puts@s),w
  5931  0E99  0084               	movwf	fsr0
  5932  0E9A  120A  118A  2700   	fcall	stringtab
              120A  158A         
  5933  0E9F  120A  158A  255D   	fcall	i1_uart_putc
              120A  158A         
  5934                           	line	115
  5935                           	
  5936  0EA4                     i1l7147:	
  5937                           ;uart.c: 115: s++;
  5938  0EA4  3001               	movlw	low(01h)
  5939  0EA5  07F1               	addwf	(i1uart_puts@s),f
  5940  0EA6  1803               	skipnc
  5941  0EA7  0AF2               	incf	(i1uart_puts@s+1),f
  5942  0EA8  3000               	movlw	high(01h)
  5943  0EA9  07F2               	addwf	(i1uart_puts@s+1),f
  5944  0EAA  2EAB               	goto	i1l7149
  5945                           	line	116
  5946                           	
  5947  0EAB                     i1l3207:	
  5948                           	line	113
  5949                           	
  5950  0EAB                     i1l7149:	
  5951  0EAB  0872               	movf	(i1uart_puts@s+1),w
  5952  0EAC  1283               	bcf	status, 5	;RP0=0, select bank0
  5953  0EAD  1303               	bcf	status, 6	;RP1=0, select bank0
  5954  0EAE  00FF               	movwf	btemp+1
  5955  0EAF  0871               	movf	(i1uart_puts@s),w
  5956  0EB0  0084               	movwf	fsr0
  5957  0EB1  120A  118A  2700   	fcall	stringtab
              120A  158A         
  5958  0EB6  3800               	iorlw	0
  5959  0EB7  1D03               	skipz
  5960  0EB8  2EBA               	goto	u527_21
  5961  0EB9  2EBB               	goto	u527_20
  5962  0EBA                     u527_21:
  5963  0EBA  2E94               	goto	i1l7145
  5964  0EBB                     u527_20:
  5965  0EBB  2EBC               	goto	i1l3210
  5966                           	
  5967  0EBC                     i1l3209:	
  5968                           	line	117
  5969                           	
  5970  0EBC                     i1l3210:	
  5971  0EBC  0008               	return
  5972                           	opt stack 0
  5973                           GLOBAL	__end_ofi1_uart_puts
  5974  0EBD                     	__end_ofi1_uart_puts:
  5975 ;; =============== function i1_uart_puts ends ============
  5976                           
  5977                           	signat	i1_uart_puts,88
  5978                           	global	i1_lcd_put_byte
  5979                           psect	text1159,local,class=CODE,delta=2
  5980                           global __ptext1159
  5981  0501                     __ptext1159:
  5982                           
  5983 ;; *************** function i1_lcd_put_byte *****************
  5984 ;; Defined at:
  5985 ;;		line 106 in file "Z:\Users\ittus\Studying\FU\Fall 2014\ESH201\Assignment 2\lcd.c"
  5986 ;; Parameters:    Size  Location     Type
  5987 ;;  lcd_put_byte    1    wreg     unsigned char 
  5988 ;;  lcd_put_byte    1    0[COMMON] unsigned char 
  5989 ;; Auto vars:     Size  Location     Type
  5990 ;;  lcd_put_byte    1    3[COMMON] unsigned char 
  5991 ;;  lcd_put_byte    1    4[COMMON] struct _BYTE_VAL
  5992 ;; Return value:  Size  Location     Type
  5993 ;;		None               void
  5994 ;; Registers used:
  5995 ;;		wreg, status,2, status,0
  5996 ;; Tracked objects:
  5997 ;;		On entry : 0/0
  5998 ;;		On exit  : 0/0
  5999 ;;		Unchanged: 0/0
  6000 ;; Data sizes:     COMMON   BANK0   BANK1   BANK3   BANK2
  6001 ;;      Params:         1       0       0       0       0
  6002 ;;      Locals:         2       0       0       0       0
  6003 ;;      Temps:          2       0       0       0       0
  6004 ;;      Totals:         5       0       0       0       0
  6005 ;;Total ram usage:        5 bytes
  6006 ;; Hardware stack levels used:    1
  6007 ;; This function calls:
  6008 ;;		Nothing
  6009 ;; This function is called by:
  6010 ;;		i1_lcd_putc
  6011 ;;		i1_lcd_gotoxy
  6012 ;;		i1_lcd_clear
  6013 ;; This function uses a non-reentrant model
  6014 ;;
  6015                           psect	text1159
  6016                           	file	"Z:\Users\ittus\Studying\FU\Fall 2014\ESH201\Assignment 2\lcd.c"
  6017                           	line	106
  6018                           	global	__size_ofi1_lcd_put_byte
  6019  00C0                     	__size_ofi1_lcd_put_byte	equ	__end_ofi1_lcd_put_byte-i1_lcd_put_byte
  6020                           	
  6021  0501                     i1_lcd_put_byte:	
  6022 ;; hardware stack exceeded
  6023                           	opt	stack 0
  6024                           ; Regs used in i1_lcd_put_byte: [wreg+status,2+status,0]
  6025                           ;i1lcd_put_byte@rs stored from wreg
  6026                           	line	109
  6027  0501  00F3               	movwf	(i1lcd_put_byte@rs)
  6028                           	
  6029  0502                     i1l7063:	
  6030                           ;lcd.c: 107: BYTE_VAL temp;
  6031                           ;lcd.c: 109: TRISD4 = 0;
  6032  0502  1683               	bsf	status, 5	;RP0=1, select bank1
  6033  0503  1303               	bcf	status, 6	;RP1=0, select bank1
  6034  0504  1208               	bcf	(1092/8)^080h,(1092)&7
  6035                           	line	110
  6036                           ;lcd.c: 110: TRISD5 = 0;
  6037  0505  1288               	bcf	(1093/8)^080h,(1093)&7
  6038                           	line	111
  6039                           ;lcd.c: 111: TRISD6 = 0;
  6040  0506  1308               	bcf	(1094/8)^080h,(1094)&7
  6041                           	line	112
  6042                           ;lcd.c: 112: TRISD7 = 0;
  6043  0507  1388               	bcf	(1095/8)^080h,(1095)&7
  6044                           	line	114
  6045                           ;lcd.c: 114: RD1 = 0;
  6046  0508  1283               	bcf	status, 5	;RP0=0, select bank0
  6047  0509  1303               	bcf	status, 6	;RP1=0, select bank0
  6048  050A  1088               	bcf	(65/8),(65)&7
  6049                           	line	115
  6050                           	
  6051  050B                     i1l7065:	
  6052                           ;lcd.c: 115: if(rs) RD1 = 1;
  6053  050B  0873               	movf	(i1lcd_put_byte@rs),w
  6054  050C  1D03               	skipz
  6055  050D  2D0F               	goto	u502_20
  6056  050E  2D11               	goto	i1l7069
  6057  050F                     u502_20:
  6058                           	
  6059  050F                     i1l7067:	
  6060  050F  1488               	bsf	(65/8),(65)&7
  6061  0510  2D11               	goto	i1l7069
  6062                           	
  6063  0511                     i1l2137:	
  6064                           	line	117
  6065                           	
  6066  0511                     i1l7069:	
  6067                           ;lcd.c: 117: _delay((unsigned long)((20)*(4000000/4000000.0)));
  6068                           	opt asmopt_off
  6069  0511  3006               movlw	6
  6070  0512  00F1               movwf	(??i1_lcd_put_byte+0)+0,f
  6071  0513                     u598_27:
  6072  0513  0BF1               decfsz	(??i1_lcd_put_byte+0)+0,f
  6073  0514  2D13               	goto	u598_27
  6074  0515  0064               	clrwdt
  6075                           opt asmopt_on
  6076                           
  6077                           	line	118
  6078                           	
  6079  0516                     i1l7071:	
  6080                           ;lcd.c: 118: RD2 = 0;
  6081  0516  1283               	bcf	status, 5	;RP0=0, select bank0
  6082  0517  1303               	bcf	status, 6	;RP1=0, select bank0
  6083  0518  1108               	bcf	(66/8),(66)&7
  6084                           	line	119
  6085                           ;lcd.c: 119: _delay((unsigned long)((20)*(4000000/4000000.0)));
  6086                           	opt asmopt_off
  6087  0519  3006               movlw	6
  6088  051A  00F1               movwf	(??i1_lcd_put_byte+0)+0,f
  6089  051B                     u599_27:
  6090  051B  0BF1               decfsz	(??i1_lcd_put_byte+0)+0,f
  6091  051C  2D1B               	goto	u599_27
  6092  051D  0064               	clrwdt
  6093                           opt asmopt_on
  6094                           
  6095                           	line	120
  6096                           	
  6097  051E                     i1l7073:	
  6098                           ;lcd.c: 120: RD3 = 0;
  6099  051E  1283               	bcf	status, 5	;RP0=0, select bank0
  6100  051F  1303               	bcf	status, 6	;RP1=0, select bank0
  6101  0520  1188               	bcf	(67/8),(67)&7
  6102                           	line	122
  6103                           ;lcd.c: 122: temp.Val = b;
  6104  0521  0870               	movf	(i1lcd_put_byte@b),w
  6105  0522  00F1               	movwf	(??i1_lcd_put_byte+0)+0
  6106  0523  0871               	movf	(??i1_lcd_put_byte+0)+0,w
  6107  0524  00F4               	movwf	(i1lcd_put_byte@temp)
  6108                           	line	125
  6109                           	
  6110  0525                     i1l7075:	
  6111                           ;lcd.c: 125: RD4 = temp.bits.b4;
  6112  0525  0E74               	swapf	(i1lcd_put_byte@temp),w
  6113  0526  3901               	andlw	(1<<1)-1
  6114  0527  00F1               	movwf	(??i1_lcd_put_byte+0)+0
  6115  0528  0C71               	rrf	(??i1_lcd_put_byte+0)+0,w
  6116  0529  1803               	btfsc	status,0
  6117  052A  2D2C               	goto	u503_21
  6118  052B  2D30               	goto	u503_20
  6119                           	
  6120  052C                     u503_21:
  6121  052C  1283               	bcf	status, 5	;RP0=0, select bank0
  6122  052D  1303               	bcf	status, 6	;RP1=0, select bank0
  6123  052E  1608               	bsf	(68/8),(68)&7
  6124  052F  2D33               	goto	u504_24
  6125  0530                     u503_20:
  6126  0530  1283               	bcf	status, 5	;RP0=0, select bank0
  6127  0531  1303               	bcf	status, 6	;RP1=0, select bank0
  6128  0532  1208               	bcf	(68/8),(68)&7
  6129  0533                     u504_24:
  6130                           	line	126
  6131                           	
  6132  0533                     i1l7077:	
  6133                           ;lcd.c: 126: RD5 = temp.bits.b5;
  6134  0533  0E74               	swapf	(i1lcd_put_byte@temp),w
  6135  0534  00F1               	movwf	(??i1_lcd_put_byte+0)+0
  6136  0535  0C71               	rrf	(??i1_lcd_put_byte+0)+0,w
  6137  0536  3901               	andlw	(1<<1)-1
  6138  0537  00F2               	movwf	(??i1_lcd_put_byte+1)+0
  6139  0538  0C72               	rrf	(??i1_lcd_put_byte+1)+0,w
  6140  0539  1803               	btfsc	status,0
  6141  053A  2D3C               	goto	u505_21
  6142  053B  2D40               	goto	u505_20
  6143                           	
  6144  053C                     u505_21:
  6145  053C  1283               	bcf	status, 5	;RP0=0, select bank0
  6146  053D  1303               	bcf	status, 6	;RP1=0, select bank0
  6147  053E  1688               	bsf	(69/8),(69)&7
  6148  053F  2D43               	goto	u506_24
  6149  0540                     u505_20:
  6150  0540  1283               	bcf	status, 5	;RP0=0, select bank0
  6151  0541  1303               	bcf	status, 6	;RP1=0, select bank0
  6152  0542  1288               	bcf	(69/8),(69)&7
  6153  0543                     u506_24:
  6154                           	line	127
  6155                           	
  6156  0543                     i1l7079:	
  6157                           ;lcd.c: 127: RD6 = temp.bits.b6;
  6158  0543  0E74               	swapf	(i1lcd_put_byte@temp),w
  6159  0544  00F1               	movwf	(??i1_lcd_put_byte+0)+0
  6160  0545  0CF1               	rrf	(??i1_lcd_put_byte+0)+0,f
  6161  0546  0C71               	rrf	(??i1_lcd_put_byte+0)+0,w
  6162  0547  3901               	andlw	(1<<1)-1
  6163  0548  00F2               	movwf	(??i1_lcd_put_byte+1)+0
  6164  0549  0C72               	rrf	(??i1_lcd_put_byte+1)+0,w
  6165  054A  1803               	btfsc	status,0
  6166  054B  2D4D               	goto	u507_21
  6167  054C  2D51               	goto	u507_20
  6168                           	
  6169  054D                     u507_21:
  6170  054D  1283               	bcf	status, 5	;RP0=0, select bank0
  6171  054E  1303               	bcf	status, 6	;RP1=0, select bank0
  6172  054F  1708               	bsf	(70/8),(70)&7
  6173  0550  2D54               	goto	u508_24
  6174  0551                     u507_20:
  6175  0551  1283               	bcf	status, 5	;RP0=0, select bank0
  6176  0552  1303               	bcf	status, 6	;RP1=0, select bank0
  6177  0553  1308               	bcf	(70/8),(70)&7
  6178  0554                     u508_24:
  6179                           	line	128
  6180                           	
  6181  0554                     i1l7081:	
  6182                           ;lcd.c: 128: RD7 = temp.bits.b7;
  6183  0554  0D74               	rlf	(i1lcd_put_byte@temp),w
  6184  0555  0D74               	rlf	(i1lcd_put_byte@temp),w
  6185  0556  3901               	andlw	1
  6186  0557  00F1               	movwf	(??i1_lcd_put_byte+0)+0
  6187  0558  0C71               	rrf	(??i1_lcd_put_byte+0)+0,w
  6188  0559  1803               	btfsc	status,0
  6189  055A  2D5C               	goto	u509_21
  6190  055B  2D60               	goto	u509_20
  6191                           	
  6192  055C                     u509_21:
  6193  055C  1283               	bcf	status, 5	;RP0=0, select bank0
  6194  055D  1303               	bcf	status, 6	;RP1=0, select bank0
  6195  055E  1788               	bsf	(71/8),(71)&7
  6196  055F  2D63               	goto	u510_24
  6197  0560                     u509_20:
  6198  0560  1283               	bcf	status, 5	;RP0=0, select bank0
  6199  0561  1303               	bcf	status, 6	;RP1=0, select bank0
  6200  0562  1388               	bcf	(71/8),(71)&7
  6201  0563                     u510_24:
  6202                           	line	129
  6203                           ;lcd.c: 129: _delay((unsigned long)((20)*(4000000/4000000.0)));
  6204                           	opt asmopt_off
  6205  0563  3006               movlw	6
  6206  0564  00F1               movwf	(??i1_lcd_put_byte+0)+0,f
  6207  0565                     u600_27:
  6208  0565  0BF1               decfsz	(??i1_lcd_put_byte+0)+0,f
  6209  0566  2D65               	goto	u600_27
  6210  0567  0064               	clrwdt
  6211                           opt asmopt_on
  6212                           
  6213                           	line	130
  6214                           	
  6215  0568                     i1l7083:	
  6216                           ;lcd.c: 130: RD3 = 1;
  6217  0568  1283               	bcf	status, 5	;RP0=0, select bank0
  6218  0569  1303               	bcf	status, 6	;RP1=0, select bank0
  6219  056A  1588               	bsf	(67/8),(67)&7
  6220                           	line	131
  6221                           ;lcd.c: 131: _delay((unsigned long)((20)*(4000000/4000000.0)));
  6222                           	opt asmopt_off
  6223  056B  3006               movlw	6
  6224  056C  00F1               movwf	(??i1_lcd_put_byte+0)+0,f
  6225  056D                     u601_27:
  6226  056D  0BF1               decfsz	(??i1_lcd_put_byte+0)+0,f
  6227  056E  2D6D               	goto	u601_27
  6228  056F  0064               	clrwdt
  6229                           opt asmopt_on
  6230                           
  6231                           	line	132
  6232                           	
  6233  0570                     i1l7085:	
  6234                           ;lcd.c: 132: RD3 = 0;
  6235  0570  1283               	bcf	status, 5	;RP0=0, select bank0
  6236  0571  1303               	bcf	status, 6	;RP1=0, select bank0
  6237  0572  1188               	bcf	(67/8),(67)&7
  6238                           	line	134
  6239                           	
  6240  0573                     i1l7087:	
  6241                           ;lcd.c: 134: RD4 = temp.bits.b0;
  6242  0573  0874               	movf	(i1lcd_put_byte@temp),w
  6243  0574  3901               	andlw	(1<<1)-1
  6244  0575  00F1               	movwf	(??i1_lcd_put_byte+0)+0
  6245  0576  0C71               	rrf	(??i1_lcd_put_byte+0)+0,w
  6246  0577  1803               	btfsc	status,0
  6247  0578  2D7A               	goto	u511_21
  6248  0579  2D7E               	goto	u511_20
  6249                           	
  6250  057A                     u511_21:
  6251  057A  1283               	bcf	status, 5	;RP0=0, select bank0
  6252  057B  1303               	bcf	status, 6	;RP1=0, select bank0
  6253  057C  1608               	bsf	(68/8),(68)&7
  6254  057D  2D81               	goto	u512_24
  6255  057E                     u511_20:
  6256  057E  1283               	bcf	status, 5	;RP0=0, select bank0
  6257  057F  1303               	bcf	status, 6	;RP1=0, select bank0
  6258  0580  1208               	bcf	(68/8),(68)&7
  6259  0581                     u512_24:
  6260                           	line	135
  6261                           	
  6262  0581                     i1l7089:	
  6263                           ;lcd.c: 135: RD5 = temp.bits.b1;
  6264  0581  0C74               	rrf	(i1lcd_put_byte@temp),w
  6265  0582  3901               	andlw	(1<<1)-1
  6266  0583  00F1               	movwf	(??i1_lcd_put_byte+0)+0
  6267  0584  0C71               	rrf	(??i1_lcd_put_byte+0)+0,w
  6268  0585  1803               	btfsc	status,0
  6269  0586  2D88               	goto	u513_21
  6270  0587  2D8C               	goto	u513_20
  6271                           	
  6272  0588                     u513_21:
  6273  0588  1283               	bcf	status, 5	;RP0=0, select bank0
  6274  0589  1303               	bcf	status, 6	;RP1=0, select bank0
  6275  058A  1688               	bsf	(69/8),(69)&7
  6276  058B  2D8F               	goto	u514_24
  6277  058C                     u513_20:
  6278  058C  1283               	bcf	status, 5	;RP0=0, select bank0
  6279  058D  1303               	bcf	status, 6	;RP1=0, select bank0
  6280  058E  1288               	bcf	(69/8),(69)&7
  6281  058F                     u514_24:
  6282                           	line	136
  6283                           	
  6284  058F                     i1l7091:	
  6285                           ;lcd.c: 136: RD6 = temp.bits.b2;
  6286  058F  0C74               	rrf	(i1lcd_put_byte@temp),w
  6287  0590  00F1               	movwf	(??i1_lcd_put_byte+0)+0
  6288  0591  0C71               	rrf	(??i1_lcd_put_byte+0)+0,w
  6289  0592  3901               	andlw	(1<<1)-1
  6290  0593  00F2               	movwf	(??i1_lcd_put_byte+1)+0
  6291  0594  0C72               	rrf	(??i1_lcd_put_byte+1)+0,w
  6292  0595  1803               	btfsc	status,0
  6293  0596  2D98               	goto	u515_21
  6294  0597  2D9C               	goto	u515_20
  6295                           	
  6296  0598                     u515_21:
  6297  0598  1283               	bcf	status, 5	;RP0=0, select bank0
  6298  0599  1303               	bcf	status, 6	;RP1=0, select bank0
  6299  059A  1708               	bsf	(70/8),(70)&7
  6300  059B  2D9F               	goto	u516_24
  6301  059C                     u515_20:
  6302  059C  1283               	bcf	status, 5	;RP0=0, select bank0
  6303  059D  1303               	bcf	status, 6	;RP1=0, select bank0
  6304  059E  1308               	bcf	(70/8),(70)&7
  6305  059F                     u516_24:
  6306                           	line	137
  6307                           	
  6308  059F                     i1l7093:	
  6309                           ;lcd.c: 137: RD7 = temp.bits.b3;
  6310  059F  0C74               	rrf	(i1lcd_put_byte@temp),w
  6311  05A0  00F1               	movwf	(??i1_lcd_put_byte+0)+0
  6312  05A1  0CF1               	rrf	(??i1_lcd_put_byte+0)+0,f
  6313  05A2  0C71               	rrf	(??i1_lcd_put_byte+0)+0,w
  6314  05A3  3901               	andlw	(1<<1)-1
  6315  05A4  00F2               	movwf	(??i1_lcd_put_byte+1)+0
  6316  05A5  0C72               	rrf	(??i1_lcd_put_byte+1)+0,w
  6317  05A6  1803               	btfsc	status,0
  6318  05A7  2DA9               	goto	u517_21
  6319  05A8  2DAD               	goto	u517_20
  6320                           	
  6321  05A9                     u517_21:
  6322  05A9  1283               	bcf	status, 5	;RP0=0, select bank0
  6323  05AA  1303               	bcf	status, 6	;RP1=0, select bank0
  6324  05AB  1788               	bsf	(71/8),(71)&7
  6325  05AC  2DB0               	goto	u518_24
  6326  05AD                     u517_20:
  6327  05AD  1283               	bcf	status, 5	;RP0=0, select bank0
  6328  05AE  1303               	bcf	status, 6	;RP1=0, select bank0
  6329  05AF  1388               	bcf	(71/8),(71)&7
  6330  05B0                     u518_24:
  6331                           	line	138
  6332                           ;lcd.c: 138: _delay((unsigned long)((20)*(4000000/4000000.0)));
  6333                           	opt asmopt_off
  6334  05B0  3006               movlw	6
  6335  05B1  00F1               movwf	(??i1_lcd_put_byte+0)+0,f
  6336  05B2                     u602_27:
  6337  05B2  0BF1               decfsz	(??i1_lcd_put_byte+0)+0,f
  6338  05B3  2DB2               	goto	u602_27
  6339  05B4  0064               	clrwdt
  6340                           opt asmopt_on
  6341                           
  6342                           	line	139
  6343                           	
  6344  05B5                     i1l7095:	
  6345                           ;lcd.c: 139: RD3 = 1;
  6346  05B5  1283               	bcf	status, 5	;RP0=0, select bank0
  6347  05B6  1303               	bcf	status, 6	;RP1=0, select bank0
  6348  05B7  1588               	bsf	(67/8),(67)&7
  6349                           	line	140
  6350                           ;lcd.c: 140: _delay((unsigned long)((20)*(4000000/4000000.0)));
  6351                           	opt asmopt_off
  6352  05B8  3006               movlw	6
  6353  05B9  00F1               movwf	(??i1_lcd_put_byte+0)+0,f
  6354  05BA                     u603_27:
  6355  05BA  0BF1               decfsz	(??i1_lcd_put_byte+0)+0,f
  6356  05BB  2DBA               	goto	u603_27
  6357  05BC  0064               	clrwdt
  6358                           opt asmopt_on
  6359                           
  6360                           	line	141
  6361                           	
  6362  05BD                     i1l7097:	
  6363                           ;lcd.c: 141: RD3 = 0;
  6364  05BD  1283               	bcf	status, 5	;RP0=0, select bank0
  6365  05BE  1303               	bcf	status, 6	;RP1=0, select bank0
  6366  05BF  1188               	bcf	(67/8),(67)&7
  6367                           	line	142
  6368                           	
  6369  05C0                     i1l2138:	
  6370  05C0  0008               	return
  6371                           	opt stack 0
  6372                           GLOBAL	__end_ofi1_lcd_put_byte
  6373  05C1                     	__end_ofi1_lcd_put_byte:
  6374 ;; =============== function i1_lcd_put_byte ends ============
  6375                           
  6376                           	signat	i1_lcd_put_byte,88
  6377                           	global	i1_lcd_busy
  6378                           psect	text1160,local,class=CODE,delta=2
  6379                           global __ptext1160
  6380  0F9A                     __ptext1160:
  6381                           
  6382 ;; *************** function i1_lcd_busy *****************
  6383 ;; Defined at:
  6384 ;;		line 47 in file "Z:\Users\ittus\Studying\FU\Fall 2014\ESH201\Assignment 2\lcd.c"
  6385 ;; Parameters:    Size  Location     Type
  6386 ;;		None
  6387 ;; Auto vars:     Size  Location     Type
  6388 ;;  lcd_busy        1    1[COMMON] unsigned char 
  6389 ;; Return value:  Size  Location     Type
  6390 ;;                  1    wreg      unsigned char 
  6391 ;; Registers used:
  6392 ;;		wreg
  6393 ;; Tracked objects:
  6394 ;;		On entry : 0/0
  6395 ;;		On exit  : 0/0
  6396 ;;		Unchanged: 0/0
  6397 ;; Data sizes:     COMMON   BANK0   BANK1   BANK3   BANK2
  6398 ;;      Params:         0       0       0       0       0
  6399 ;;      Locals:         1       0       0       0       0
  6400 ;;      Temps:          1       0       0       0       0
  6401 ;;      Totals:         2       0       0       0       0
  6402 ;;Total ram usage:        2 bytes
  6403 ;; Hardware stack levels used:    1
  6404 ;; This function calls:
  6405 ;;		Nothing
  6406 ;; This function is called by:
  6407 ;;		i1_lcd_putc
  6408 ;;		i1_lcd_gotoxy
  6409 ;;		i1_lcd_clear
  6410 ;; This function uses a non-reentrant model
  6411 ;;
  6412                           psect	text1160
  6413                           	file	"Z:\Users\ittus\Studying\FU\Fall 2014\ESH201\Assignment 2\lcd.c"
  6414                           	line	47
  6415                           	global	__size_ofi1_lcd_busy
  6416  0033                     	__size_ofi1_lcd_busy	equ	__end_ofi1_lcd_busy-i1_lcd_busy
  6417                           	
  6418  0F9A                     i1_lcd_busy:	
  6419 ;; hardware stack exceeded
  6420                           	opt	stack 0
  6421                           ; Regs used in i1_lcd_busy: [wreg]
  6422                           	line	50
  6423                           	
  6424  0F9A                     i1l7049:	
  6425                           ;lcd.c: 48: unsigned char busy;
  6426                           ;lcd.c: 50: TRISD4 = 1;
  6427  0F9A  1683               	bsf	status, 5	;RP0=1, select bank1
  6428  0F9B  1303               	bcf	status, 6	;RP1=0, select bank1
  6429  0F9C  1608               	bsf	(1092/8)^080h,(1092)&7
  6430                           	line	51
  6431                           ;lcd.c: 51: TRISD5 = 1;
  6432  0F9D  1688               	bsf	(1093/8)^080h,(1093)&7
  6433                           	line	52
  6434                           ;lcd.c: 52: TRISD6 = 1;
  6435  0F9E  1708               	bsf	(1094/8)^080h,(1094)&7
  6436                           	line	53
  6437                           ;lcd.c: 53: TRISD7 = 1;
  6438  0F9F  1788               	bsf	(1095/8)^080h,(1095)&7
  6439                           	line	55
  6440                           ;lcd.c: 55: RD2 = 1;
  6441  0FA0  1283               	bcf	status, 5	;RP0=0, select bank0
  6442  0FA1  1303               	bcf	status, 6	;RP1=0, select bank0
  6443  0FA2  1508               	bsf	(66/8),(66)&7
  6444                           	line	56
  6445                           ;lcd.c: 56: RD1 = 0;
  6446  0FA3  1088               	bcf	(65/8),(65)&7
  6447                           	line	57
  6448                           	
  6449  0FA4                     i1l7051:	
  6450                           ;lcd.c: 57: _delay((unsigned long)((20)*(4000000/4000000.0)));
  6451                           	opt asmopt_off
  6452  0FA4  3006               movlw	6
  6453  0FA5  00F0               movwf	(??i1_lcd_busy+0)+0,f
  6454  0FA6                     u604_27:
  6455  0FA6  0BF0               decfsz	(??i1_lcd_busy+0)+0,f
  6456  0FA7  2FA6               	goto	u604_27
  6457  0FA8  0064               	clrwdt
  6458                           opt asmopt_on
  6459                           
  6460                           	line	58
  6461                           	
  6462  0FA9                     i1l7053:	
  6463                           ;lcd.c: 58: RD3 = 1;
  6464  0FA9  1283               	bcf	status, 5	;RP0=0, select bank0
  6465  0FAA  1303               	bcf	status, 6	;RP1=0, select bank0
  6466  0FAB  1588               	bsf	(67/8),(67)&7
  6467                           	line	59
  6468                           ;lcd.c: 59: _delay((unsigned long)((20)*(4000000/4000000.0)));
  6469                           	opt asmopt_off
  6470  0FAC  3006               movlw	6
  6471  0FAD  00F0               movwf	(??i1_lcd_busy+0)+0,f
  6472  0FAE                     u605_27:
  6473  0FAE  0BF0               decfsz	(??i1_lcd_busy+0)+0,f
  6474  0FAF  2FAE               	goto	u605_27
  6475  0FB0  0064               	clrwdt
  6476                           opt asmopt_on
  6477                           
  6478                           	line	61
  6479                           ;lcd.c: 61: busy = RD7;
  6480  0FB1  3000               	movlw	0
  6481  0FB2  1283               	bcf	status, 5	;RP0=0, select bank0
  6482  0FB3  1303               	bcf	status, 6	;RP1=0, select bank0
  6483  0FB4  1B88               	btfsc	(71/8),(71)&7
  6484  0FB5  3001               	movlw	1
  6485  0FB6  00F0               	movwf	(??i1_lcd_busy+0)+0
  6486  0FB7  0870               	movf	(??i1_lcd_busy+0)+0,w
  6487  0FB8  00F1               	movwf	(i1lcd_busy@busy)
  6488                           	line	63
  6489                           	
  6490  0FB9                     i1l7055:	
  6491                           ;lcd.c: 63: RD3 = 0;
  6492  0FB9  1188               	bcf	(67/8),(67)&7
  6493                           	line	64
  6494                           ;lcd.c: 64: _delay((unsigned long)((20)*(4000000/4000000.0)));
  6495                           	opt asmopt_off
  6496  0FBA  3006               movlw	6
  6497  0FBB  00F0               movwf	(??i1_lcd_busy+0)+0,f
  6498  0FBC                     u606_27:
  6499  0FBC  0BF0               decfsz	(??i1_lcd_busy+0)+0,f
  6500  0FBD  2FBC               	goto	u606_27
  6501  0FBE  0064               	clrwdt
  6502                           opt asmopt_on
  6503                           
  6504                           	line	65
  6505                           	
  6506  0FBF                     i1l7057:	
  6507                           ;lcd.c: 65: RD3 = 1;
  6508  0FBF  1283               	bcf	status, 5	;RP0=0, select bank0
  6509  0FC0  1303               	bcf	status, 6	;RP1=0, select bank0
  6510  0FC1  1588               	bsf	(67/8),(67)&7
  6511                           	line	66
  6512                           ;lcd.c: 66: _delay((unsigned long)((20)*(4000000/4000000.0)));
  6513                           	opt asmopt_off
  6514  0FC2  3006               movlw	6
  6515  0FC3  00F0               movwf	(??i1_lcd_busy+0)+0,f
  6516  0FC4                     u607_27:
  6517  0FC4  0BF0               decfsz	(??i1_lcd_busy+0)+0,f
  6518  0FC5  2FC4               	goto	u607_27
  6519  0FC6  0064               	clrwdt
  6520                           opt asmopt_on
  6521                           
  6522                           	line	67
  6523                           	
  6524  0FC7                     i1l7059:	
  6525                           ;lcd.c: 67: RD3 = 0;
  6526  0FC7  1283               	bcf	status, 5	;RP0=0, select bank0
  6527  0FC8  1303               	bcf	status, 6	;RP1=0, select bank0
  6528  0FC9  1188               	bcf	(67/8),(67)&7
  6529                           	line	70
  6530                           ;lcd.c: 70: return busy;
  6531  0FCA  0871               	movf	(i1lcd_busy@busy),w
  6532  0FCB  2FCC               	goto	i1l2130
  6533                           	
  6534  0FCC                     i1l7061:	
  6535                           	line	71
  6536                           	
  6537  0FCC                     i1l2130:	
  6538  0FCC  0008               	return
  6539                           	opt stack 0
  6540                           GLOBAL	__end_ofi1_lcd_busy
  6541  0FCD                     	__end_ofi1_lcd_busy:
  6542 ;; =============== function i1_lcd_busy ends ============
  6543                           
  6544                           	signat	i1_lcd_busy,89
  6545                           	global	_uart_gets
  6546                           psect	text1161,local,class=CODE,delta=2
  6547                           global __ptext1161
  6548  0E19                     __ptext1161:
  6549                           
  6550 ;; *************** function _uart_gets *****************
  6551 ;; Defined at:
  6552 ;;		line 126 in file "Z:\Users\ittus\Studying\FU\Fall 2014\ESH201\Assignment 2\uart.c"
  6553 ;; Parameters:    Size  Location     Type
  6554 ;;  s               1    wreg     PTR unsigned char 
  6555 ;;		 -> inter_func@input(8), 
  6556 ;; Auto vars:     Size  Location     Type
  6557 ;;  s               1    1[COMMON] PTR unsigned char 
  6558 ;;		 -> inter_func@input(8), 
  6559 ;;  g               1    0        unsigned char 
  6560 ;; Return value:  Size  Location     Type
  6561 ;;		None               void
  6562 ;; Registers used:
  6563 ;;		wreg, fsr0l, fsr0h, status,2, status,0, pclath, cstack
  6564 ;; Tracked objects:
  6565 ;;		On entry : 0/0
  6566 ;;		On exit  : 0/0
  6567 ;;		Unchanged: 0/0
  6568 ;; Data sizes:     COMMON   BANK0   BANK1   BANK3   BANK2
  6569 ;;      Params:         0       0       0       0       0
  6570 ;;      Locals:         1       0       0       0       0
  6571 ;;      Temps:          1       0       0       0       0
  6572 ;;      Totals:         2       0       0       0       0
  6573 ;;Total ram usage:        2 bytes
  6574 ;; Hardware stack levels used:    1
  6575 ;; Hardware stack levels required when called:    1
  6576 ;; This function calls:
  6577 ;;		_uart_getc
  6578 ;; This function is called by:
  6579 ;;		_inter_func
  6580 ;; This function uses a non-reentrant model
  6581 ;;
  6582                           psect	text1161
  6583                           	file	"Z:\Users\ittus\Studying\FU\Fall 2014\ESH201\Assignment 2\uart.c"
  6584                           	line	126
  6585                           	global	__size_of_uart_gets
  6586  0026                     	__size_of_uart_gets	equ	__end_of_uart_gets-_uart_gets
  6587                           	
  6588  0E19                     _uart_gets:	
  6589                           	opt	stack 0
  6590                           ; Regs used in _uart_gets: [wreg-fsr0h+status,2+status,0+pclath+cstack]
  6591                           ;uart_gets@s stored from wreg
  6592                           	line	128
  6593  0E19  00F1               	movwf	(uart_gets@s)
  6594                           	
  6595  0E1A                     i1l6371:	
  6596                           ;uart.c: 127: char g;
  6597                           ;uart.c: 128: *s = uart_getc();
  6598  0E1A  120A  118A  26F5   	fcall	_uart_getc
              120A  158A         
  6599  0E1F  00F0               	movwf	(??_uart_gets+0)+0
  6600  0E20  0871               	movf	(uart_gets@s),w
  6601  0E21  0084               	movwf	fsr0
  6602  0E22  0870               	movf	(??_uart_gets+0)+0,w
  6603  0E23  1383               	bcf	status, 7	;select IRP bank0
  6604  0E24  0080               	movwf	indf
  6605                           	line	129
  6606                           ;uart.c: 129: while(*s!='\0'){
  6607  0E25  2E36               	goto	i1l6377
  6608                           	
  6609  0E26                     i1l3225:	
  6610                           	line	130
  6611                           	
  6612  0E26                     i1l6373:	
  6613                           ;uart.c: 130: s++;
  6614  0E26  3001               	movlw	(01h)
  6615  0E27  00F0               	movwf	(??_uart_gets+0)+0
  6616  0E28  0870               	movf	(??_uart_gets+0)+0,w
  6617  0E29  07F1               	addwf	(uart_gets@s),f
  6618                           	line	131
  6619                           	
  6620  0E2A                     i1l6375:	
  6621                           ;uart.c: 131: *s = uart_getc();
  6622  0E2A  120A  118A  26F5   	fcall	_uart_getc
              120A  158A         
  6623  0E2F  00F0               	movwf	(??_uart_gets+0)+0
  6624  0E30  0871               	movf	(uart_gets@s),w
  6625  0E31  0084               	movwf	fsr0
  6626  0E32  0870               	movf	(??_uart_gets+0)+0,w
  6627  0E33  1383               	bcf	status, 7	;select IRP bank0
  6628  0E34  0080               	movwf	indf
  6629  0E35  2E36               	goto	i1l6377
  6630                           	line	132
  6631                           	
  6632  0E36                     i1l3224:	
  6633                           	line	129
  6634                           	
  6635  0E36                     i1l6377:	
  6636  0E36  0871               	movf	(uart_gets@s),w
  6637  0E37  0084               	movwf	fsr0
  6638  0E38  0880               	movf	indf,f
  6639  0E39  1D03               	skipz
  6640  0E3A  2E3C               	goto	u363_21
  6641  0E3B  2E3D               	goto	u363_20
  6642  0E3C                     u363_21:
  6643  0E3C  2E26               	goto	i1l6373
  6644  0E3D                     u363_20:
  6645  0E3D  2E3E               	goto	i1l3227
  6646                           	
  6647  0E3E                     i1l3226:	
  6648                           	line	133
  6649                           	
  6650  0E3E                     i1l3227:	
  6651  0E3E  0008               	return
  6652                           	opt stack 0
  6653                           GLOBAL	__end_of_uart_gets
  6654  0E3F                     	__end_of_uart_gets:
  6655 ;; =============== function _uart_gets ends ============
  6656                           
  6657                           	signat	_uart_gets,4216
  6658                           	global	i1___wmul
  6659                           psect	text1162,local,class=CODE,delta=2
  6660                           global __ptext1162
  6661  0E68                     __ptext1162:
  6662                           
  6663 ;; *************** function i1___wmul *****************
  6664 ;; Defined at:
  6665 ;;		line 3 in file "C:\Program Files\HI-TECH Software\PICC\9.82\sources\wmul.c"
  6666 ;; Parameters:    Size  Location     Type
  6667 ;;  __wmul          2    0[COMMON] unsigned int 
  6668 ;;  __wmul          2    2[COMMON] unsigned int 
  6669 ;; Auto vars:     Size  Location     Type
  6670 ;;  __wmul          2    4[COMMON] unsigned int 
  6671 ;; Return value:  Size  Location     Type
  6672 ;;                  2    0[COMMON] unsigned int 
  6673 ;; Registers used:
  6674 ;;		wreg, status,2, status,0
  6675 ;; Tracked objects:
  6676 ;;		On entry : 0/0
  6677 ;;		On exit  : 0/0
  6678 ;;		Unchanged: 0/0
  6679 ;; Data sizes:     COMMON   BANK0   BANK1   BANK3   BANK2
  6680 ;;      Params:         4       0       0       0       0
  6681 ;;      Locals:         2       0       0       0       0
  6682 ;;      Temps:          0       0       0       0       0
  6683 ;;      Totals:         6       0       0       0       0
  6684 ;;Total ram usage:        6 bytes
  6685 ;; Hardware stack levels used:    1
  6686 ;; This function calls:
  6687 ;;		Nothing
  6688 ;; This function is called by:
  6689 ;;		_inter_func
  6690 ;; This function uses a non-reentrant model
  6691 ;;
  6692                           psect	text1162
  6693                           	file	"C:\Program Files\HI-TECH Software\PICC\9.82\sources\wmul.c"
  6694                           	line	3
  6695                           	global	__size_ofi1___wmul
  6696  002A                     	__size_ofi1___wmul	equ	__end_ofi1___wmul-i1___wmul
  6697                           	
  6698  0E68                     i1___wmul:	
  6699                           	opt	stack 1
  6700                           ; Regs used in i1___wmul: [wreg+status,2+status,0]
  6701                           	line	4
  6702                           	
  6703  0E68                     i1l6629:	
  6704  0E68  01F4               	clrf	(i1___wmul@product)
  6705  0E69  01F5               	clrf	(i1___wmul@product+1)
  6706  0E6A  2E6B               	goto	i1l6631
  6707                           	line	6
  6708                           	
  6709  0E6B                     i1l4285:	
  6710                           	line	7
  6711                           	
  6712  0E6B                     i1l6631:	
  6713  0E6B  1C70               	btfss	(i1___wmul@multiplier),(0)&7
  6714  0E6C  2E6E               	goto	u417_21
  6715  0E6D  2E6F               	goto	u417_20
  6716  0E6E                     u417_21:
  6717  0E6E  2E75               	goto	i1l4286
  6718  0E6F                     u417_20:
  6719                           	line	8
  6720                           	
  6721  0E6F                     i1l6633:	
  6722  0E6F  0872               	movf	(i1___wmul@multiplicand),w
  6723  0E70  07F4               	addwf	(i1___wmul@product),f
  6724  0E71  1803               	skipnc
  6725  0E72  0AF5               	incf	(i1___wmul@product+1),f
  6726  0E73  0873               	movf	(i1___wmul@multiplicand+1),w
  6727  0E74  07F5               	addwf	(i1___wmul@product+1),f
  6728                           	
  6729  0E75                     i1l4286:	
  6730                           	line	9
  6731  0E75  3001               	movlw	01h
  6732                           	
  6733  0E76                     u418_25:
  6734  0E76  1003               	clrc
  6735  0E77  0DF2               	rlf	(i1___wmul@multiplicand),f
  6736  0E78  0DF3               	rlf	(i1___wmul@multiplicand+1),f
  6737  0E79  3EFF               	addlw	-1
  6738  0E7A  1D03               	skipz
  6739  0E7B  2E76               	goto	u418_25
  6740                           	line	10
  6741                           	
  6742  0E7C                     i1l6635:	
  6743  0E7C  3001               	movlw	01h
  6744                           	
  6745  0E7D                     u419_25:
  6746  0E7D  1003               	clrc
  6747  0E7E  0CF1               	rrf	(i1___wmul@multiplier+1),f
  6748  0E7F  0CF0               	rrf	(i1___wmul@multiplier),f
  6749  0E80  3EFF               	addlw	-1
  6750  0E81  1D03               	skipz
  6751  0E82  2E7D               	goto	u419_25
  6752                           	line	11
  6753  0E83  0871               	movf	((i1___wmul@multiplier+1)),w
  6754  0E84  0470               	iorwf	((i1___wmul@multiplier)),w
  6755  0E85  1D03               	skipz
  6756  0E86  2E88               	goto	u420_21
  6757  0E87  2E89               	goto	u420_20
  6758  0E88                     u420_21:
  6759  0E88  2E6B               	goto	i1l6631
  6760  0E89                     u420_20:
  6761  0E89  2E8A               	goto	i1l6637
  6762                           	
  6763  0E8A                     i1l4287:	
  6764                           	line	12
  6765                           	
  6766  0E8A                     i1l6637:	
  6767  0E8A  0875               	movf	(i1___wmul@product+1),w
  6768  0E8B  01F1               	clrf	(?i1___wmul+1)
  6769  0E8C  07F1               	addwf	(?i1___wmul+1)
  6770  0E8D  0874               	movf	(i1___wmul@product),w
  6771  0E8E  01F0               	clrf	(?i1___wmul)
  6772  0E8F  07F0               	addwf	(?i1___wmul)
  6773                           
  6774  0E90  2E91               	goto	i1l4288
  6775                           	
  6776  0E91                     i1l6639:	
  6777                           	line	13
  6778                           	
  6779  0E91                     i1l4288:	
  6780  0E91  0008               	return
  6781                           	opt stack 0
  6782                           GLOBAL	__end_ofi1___wmul
  6783  0E92                     	__end_ofi1___wmul:
  6784 ;; =============== function i1___wmul ends ============
  6785                           
  6786                           	signat	i1___wmul,90
  6787                           	global	i1_isprint
  6788                           psect	text1163,local,class=CODE,delta=2
  6789                           global __ptext1163
  6790  0D75                     __ptext1163:
  6791                           
  6792 ;; *************** function i1_isprint *****************
  6793 ;; Defined at:
  6794 ;;		line 13 in file "C:\Program Files\HI-TECH Software\PICC\9.82\sources\isprint.c"
  6795 ;; Parameters:    Size  Location     Type
  6796 ;;  isprint         1    wreg     unsigned char 
  6797 ;; Auto vars:     Size  Location     Type
  6798 ;;  isprint         1    1[COMMON] unsigned char 
  6799 ;;  isprint         1    0[COMMON] unsigned char 
  6800 ;; Return value:  Size  Location     Type
  6801 ;;		None               void
  6802 ;; Registers used:
  6803 ;;		wreg, status,2, status,0
  6804 ;; Tracked objects:
  6805 ;;		On entry : 0/0
  6806 ;;		On exit  : 0/0
  6807 ;;		Unchanged: 0/0
  6808 ;; Data sizes:     COMMON   BANK0   BANK1   BANK3   BANK2
  6809 ;;      Params:         0       0       0       0       0
  6810 ;;      Locals:         2       0       0       0       0
  6811 ;;      Temps:          0       0       0       0       0
  6812 ;;      Totals:         2       0       0       0       0
  6813 ;;Total ram usage:        2 bytes
  6814 ;; Hardware stack levels used:    1
  6815 ;; This function calls:
  6816 ;;		Nothing
  6817 ;; This function is called by:
  6818 ;;		i1_lcd_putc
  6819 ;; This function uses a non-reentrant model
  6820 ;;
  6821                           psect	text1163
  6822                           	file	"C:\Program Files\HI-TECH Software\PICC\9.82\sources\isprint.c"
  6823                           	global	__size_ofi1_isprint
  6824  0015                     	__size_ofi1_isprint	equ	__end_ofi1_isprint-i1_isprint
  6825                           	
  6826  0D75                     i1_isprint:	
  6827 ;; hardware stack exceeded
  6828                           	opt	stack 0
  6829                           ; Regs used in i1_isprint: [wreg+status,2+status,0]
  6830                           ;i1isprint@c stored from wreg
  6831  0D75  00F1               	movwf	(i1isprint@c)
  6832                           	line	14
  6833                           	
  6834  0D76                     i1l7151:	
  6835  0D76  01F0               	clrf	(i1_isprint$4894)
  6836                           	
  6837  0D77                     i1l7153:	
  6838  0D77  307F               	movlw	(07Fh)
  6839  0D78  0271               	subwf	(i1isprint@c),w
  6840  0D79  1803               	skipnc
  6841  0D7A  2D7C               	goto	u528_21
  6842  0D7B  2D7D               	goto	u528_20
  6843  0D7C                     u528_21:
  6844  0D7C  2D87               	goto	i1l7159
  6845  0D7D                     u528_20:
  6846                           	
  6847  0D7D                     i1l7155:	
  6848  0D7D  3020               	movlw	(020h)
  6849  0D7E  0271               	subwf	(i1isprint@c),w
  6850  0D7F  1C03               	skipc
  6851  0D80  2D82               	goto	u529_21
  6852  0D81  2D83               	goto	u529_20
  6853  0D82                     u529_21:
  6854  0D82  2D87               	goto	i1l7159
  6855  0D83                     u529_20:
  6856                           	
  6857  0D83                     i1l7157:	
  6858  0D83  01F0               	clrf	(i1_isprint$4894)
  6859  0D84  1403               	bsf	status,0
  6860  0D85  0DF0               	rlf	(i1_isprint$4894),f
  6861  0D86  2D87               	goto	i1l7159
  6862                           	
  6863  0D87                     i1l4267:	
  6864                           	
  6865  0D87                     i1l7159:	
  6866  0D87  0C70               	rrf	(i1_isprint$4894),w
  6867                           	
  6868  0D88  2D89               	goto	i1l4268
  6869                           	
  6870  0D89                     i1l7161:	
  6871                           	line	15
  6872                           	
  6873  0D89                     i1l4268:	
  6874  0D89  0008               	return
  6875                           	opt stack 0
  6876                           GLOBAL	__end_ofi1_isprint
  6877  0D8A                     	__end_ofi1_isprint:
  6878 ;; =============== function i1_isprint ends ============
  6879                           
  6880                           	signat	i1_isprint,88
  6881                           	global	i1_uart_putc
  6882                           psect	text1164,local,class=CODE,delta=2
  6883                           global __ptext1164
  6884  0D5D                     __ptext1164:
  6885                           
  6886 ;; *************** function i1_uart_putc *****************
  6887 ;; Defined at:
  6888 ;;		line 107 in file "Z:\Users\ittus\Studying\FU\Fall 2014\ESH201\Assignment 2\uart.c"
  6889 ;; Parameters:    Size  Location     Type
  6890 ;;  uart_putc       1    wreg     unsigned char 
  6891 ;; Auto vars:     Size  Location     Type
  6892 ;;  uart_putc       1    0[COMMON] unsigned char 
  6893 ;; Return value:  Size  Location     Type
  6894 ;;		None               void
  6895 ;; Registers used:
  6896 ;;		wreg
  6897 ;; Tracked objects:
  6898 ;;		On entry : 0/0
  6899 ;;		On exit  : 0/0
  6900 ;;		Unchanged: 0/0
  6901 ;; Data sizes:     COMMON   BANK0   BANK1   BANK3   BANK2
  6902 ;;      Params:         0       0       0       0       0
  6903 ;;      Locals:         1       0       0       0       0
  6904 ;;      Temps:          0       0       0       0       0
  6905 ;;      Totals:         1       0       0       0       0
  6906 ;;Total ram usage:        1 bytes
  6907 ;; Hardware stack levels used:    1
  6908 ;; This function calls:
  6909 ;;		Nothing
  6910 ;; This function is called by:
  6911 ;;		i1_uart_puts
  6912 ;; This function uses a non-reentrant model
  6913 ;;
  6914                           psect	text1164
  6915                           	file	"Z:\Users\ittus\Studying\FU\Fall 2014\ESH201\Assignment 2\uart.c"
  6916                           	line	107
  6917                           	global	__size_ofi1_uart_putc
  6918  000C                     	__size_ofi1_uart_putc	equ	__end_ofi1_uart_putc-i1_uart_putc
  6919                           	
  6920  0D5D                     i1_uart_putc:	
  6921                           	opt	stack 0
  6922                           ; Regs used in i1_uart_putc: [wreg]
  6923                           ;i1uart_putc@c stored from wreg
  6924  0D5D  00F0               	movwf	(i1uart_putc@c)
  6925                           	line	108
  6926                           	
  6927  0D5E                     i1l7139:	
  6928                           ;uart.c: 108: while(!TXIF);
  6929  0D5E  2D5F               	goto	i1l3201
  6930                           	
  6931  0D5F                     i1l3202:	
  6932                           	
  6933  0D5F                     i1l3201:	
  6934  0D5F  1283               	bcf	status, 5	;RP0=0, select bank0
  6935  0D60  1303               	bcf	status, 6	;RP1=0, select bank0
  6936  0D61  1E0C               	btfss	(100/8),(100)&7
  6937  0D62  2D64               	goto	u526_21
  6938  0D63  2D65               	goto	u526_20
  6939  0D64                     u526_21:
  6940  0D64  2D5F               	goto	i1l3201
  6941  0D65                     u526_20:
  6942  0D65  2D66               	goto	i1l7141
  6943                           	
  6944  0D66                     i1l3203:	
  6945                           	line	109
  6946                           	
  6947  0D66                     i1l7141:	
  6948                           ;uart.c: 109: TXREG = c;
  6949  0D66  0870               	movf	(i1uart_putc@c),w
  6950  0D67  0099               	movwf	(25)	;volatile
  6951                           	line	110
  6952                           	
  6953  0D68                     i1l3204:	
  6954  0D68  0008               	return
  6955                           	opt stack 0
  6956                           GLOBAL	__end_ofi1_uart_putc
  6957  0D69                     	__end_ofi1_uart_putc:
  6958 ;; =============== function i1_uart_putc ends ============
  6959                           
  6960                           	signat	i1_uart_putc,88
  6961                           	global	i1_set_counter
  6962                           psect	text1165,local,class=CODE,delta=2
  6963                           global __ptext1165
  6964  0D47                     __ptext1165:
  6965                           
  6966 ;; *************** function i1_set_counter *****************
  6967 ;; Defined at:
  6968 ;;		line 18 in file "Z:\Users\ittus\Studying\FU\Fall 2014\ESH201\Assignment 2\C_LCD.c"
  6969 ;; Parameters:    Size  Location     Type
  6970 ;;		None
  6971 ;; Auto vars:     Size  Location     Type
  6972 ;;		None
  6973 ;; Return value:  Size  Location     Type
  6974 ;;		None               void
  6975 ;; Registers used:
  6976 ;;		wreg, status,2
  6977 ;; Tracked objects:
  6978 ;;		On entry : 0/0
  6979 ;;		On exit  : 0/0
  6980 ;;		Unchanged: 0/0
  6981 ;; Data sizes:     COMMON   BANK0   BANK1   BANK3   BANK2
  6982 ;;      Params:         0       0       0       0       0
  6983 ;;      Locals:         0       0       0       0       0
  6984 ;;      Temps:          0       0       0       0       0
  6985 ;;      Totals:         0       0       0       0       0
  6986 ;;Total ram usage:        0 bytes
  6987 ;; Hardware stack levels used:    1
  6988 ;; This function calls:
  6989 ;;		Nothing
  6990 ;; This function is called by:
  6991 ;;		_inter_func
  6992 ;; This function uses a non-reentrant model
  6993 ;;
  6994                           psect	text1165
  6995                           	file	"Z:\Users\ittus\Studying\FU\Fall 2014\ESH201\Assignment 2\C_LCD.c"
  6996                           	line	18
  6997                           	global	__size_ofi1_set_counter
  6998  0006                     	__size_ofi1_set_counter	equ	__end_ofi1_set_counter-i1_set_counter
  6999                           	
  7000  0D47                     i1_set_counter:	
  7001                           	opt	stack 1
  7002                           ; Regs used in i1_set_counter: [wreg+status,2]
  7003                           	line	19
  7004                           	
  7005  0D47                     i1l6511:	
  7006                           ;C_LCD.c: 19: TMR1H = 0x80;
  7007  0D47  3080               	movlw	(080h)
  7008  0D48  1283               	bcf	status, 5	;RP0=0, select bank0
  7009  0D49  1303               	bcf	status, 6	;RP1=0, select bank0
  7010  0D4A  008F               	movwf	(15)	;volatile
  7011                           	line	20
  7012                           	
  7013  0D4B                     i1l6513:	
  7014                           ;C_LCD.c: 20: TMR1L = 0x00;
  7015  0D4B  018E               	clrf	(14)	;volatile
  7016                           	line	21
  7017                           	
  7018  0D4C                     i1l1052:	
  7019  0D4C  0008               	return
  7020                           	opt stack 0
  7021                           GLOBAL	__end_ofi1_set_counter
  7022  0D4D                     	__end_ofi1_set_counter:
  7023 ;; =============== function i1_set_counter ends ============
  7024                           
  7025                           	signat	i1_set_counter,88
  7026                           	global	_uart_getc
  7027                           psect	text1166,local,class=CODE,delta=2
  7028                           global __ptext1166
  7029  06F5                     __ptext1166:
  7030                           
  7031 ;; *************** function _uart_getc *****************
  7032 ;; Defined at:
  7033 ;;		line 118 in file "Z:\Users\ittus\Studying\FU\Fall 2014\ESH201\Assignment 2\uart.c"
  7034 ;; Parameters:    Size  Location     Type
  7035 ;;		None
  7036 ;; Auto vars:     Size  Location     Type
  7037 ;;		None
  7038 ;; Return value:  Size  Location     Type
  7039 ;;                  1    wreg      unsigned char 
  7040 ;; Registers used:
  7041 ;;		wreg
  7042 ;; Tracked objects:
  7043 ;;		On entry : 0/0
  7044 ;;		On exit  : 0/0
  7045 ;;		Unchanged: 0/0
  7046 ;; Data sizes:     COMMON   BANK0   BANK1   BANK3   BANK2
  7047 ;;      Params:         0       0       0       0       0
  7048 ;;      Locals:         0       0       0       0       0
  7049 ;;      Temps:          0       0       0       0       0
  7050 ;;      Totals:         0       0       0       0       0
  7051 ;;Total ram usage:        0 bytes
  7052 ;; Hardware stack levels used:    1
  7053 ;; This function calls:
  7054 ;;		Nothing
  7055 ;; This function is called by:
  7056 ;;		_uart_gets
  7057 ;; This function uses a non-reentrant model
  7058 ;;
  7059                           psect	text1166
  7060                           	file	"Z:\Users\ittus\Studying\FU\Fall 2014\ESH201\Assignment 2\uart.c"
  7061                           	line	118
  7062                           	global	__size_of_uart_getc
  7063  000B                     	__size_of_uart_getc	equ	__end_of_uart_getc-_uart_getc
  7064                           	
  7065  06F5                     _uart_getc:	
  7066                           	opt	stack 0
  7067                           ; Regs used in _uart_getc: [wreg]
  7068                           	line	119
  7069                           	
  7070  06F5                     i1l6433:	
  7071                           ;uart.c: 119: while(!RCIF);
  7072  06F5  2EF6               	goto	i1l3213
  7073                           	
  7074  06F6                     i1l3214:	
  7075                           	
  7076  06F6                     i1l3213:	
  7077  06F6  1283               	bcf	status, 5	;RP0=0, select bank0
  7078  06F7  1303               	bcf	status, 6	;RP1=0, select bank0
  7079  06F8  1E8C               	btfss	(101/8),(101)&7
  7080  06F9  2EFB               	goto	u369_21
  7081  06FA  2EFC               	goto	u369_20
  7082  06FB                     u369_21:
  7083  06FB  2EF6               	goto	i1l3213
  7084  06FC                     u369_20:
  7085  06FC  2EFD               	goto	i1l6435
  7086                           	
  7087  06FD                     i1l3215:	
  7088                           	line	120
  7089                           	
  7090  06FD                     i1l6435:	
  7091                           ;uart.c: 120: return RCREG;
  7092  06FD  081A               	movf	(26),w	;volatile
  7093  06FE  2EFF               	goto	i1l3216
  7094                           	
  7095  06FF                     i1l6437:	
  7096                           	line	121
  7097                           	
  7098  06FF                     i1l3216:	
  7099  06FF  0008               	return
  7100                           	opt stack 0
  7101                           GLOBAL	__end_of_uart_getc
  7102  0700                     	__end_of_uart_getc:
  7103 ;; =============== function _uart_getc ends ============
  7104                           
  7105                           	signat	_uart_getc,89
  7106                           	global	_strcmp
  7107                           psect	text1167,local,class=CODE,delta=2
  7108                           global __ptext1167
  7109  0F6B                     __ptext1167:
  7110                           
  7111 ;; *************** function _strcmp *****************
  7112 ;; Defined at:
  7113 ;;		line 34 in file "C:\Program Files\HI-TECH Software\PICC\9.82\sources\strcmp.c"
  7114 ;; Parameters:    Size  Location     Type
  7115 ;;  s1              1    wreg     PTR const unsigned char 
  7116 ;;		 -> inter_func@input(8), 
  7117 ;;  s2              1    0[COMMON] PTR const unsigned char 
  7118 ;;		 -> STR_2(11), 
  7119 ;; Auto vars:     Size  Location     Type
  7120 ;;  s1              1    5[COMMON] PTR const unsigned char 
  7121 ;;		 -> inter_func@input(8), 
  7122 ;;  r               1    4[COMMON] char 
  7123 ;; Return value:  Size  Location     Type
  7124 ;;                  2    0[COMMON] int 
  7125 ;; Registers used:
  7126 ;;		wreg, fsr0l, fsr0h, status,2, status,0, pclath
  7127 ;; Tracked objects:
  7128 ;;		On entry : 0/0
  7129 ;;		On exit  : 0/0
  7130 ;;		Unchanged: 0/0
  7131 ;; Data sizes:     COMMON   BANK0   BANK1   BANK3   BANK2
  7132 ;;      Params:         2       0       0       0       0
  7133 ;;      Locals:         2       0       0       0       0
  7134 ;;      Temps:          2       0       0       0       0
  7135 ;;      Totals:         6       0       0       0       0
  7136 ;;Total ram usage:        6 bytes
  7137 ;; Hardware stack levels used:    2
  7138 ;; This function calls:
  7139 ;;		Nothing
  7140 ;; This function is called by:
  7141 ;;		_inter_func
  7142 ;; This function uses a non-reentrant model
  7143 ;;
  7144                           psect	text1167
  7145                           	file	"C:\Program Files\HI-TECH Software\PICC\9.82\sources\strcmp.c"
  7146                           	line	34
  7147                           	global	__size_of_strcmp
  7148  002F                     	__size_of_strcmp	equ	__end_of_strcmp-_strcmp
  7149                           	
  7150  0F6B                     _strcmp:	
  7151 ;; using string table level
  7152                           	opt	stack 1
  7153                           ; Regs used in _strcmp: [wreg-fsr0h+status,2+status,0+pclath]
  7154                           ;strcmp@s1 stored from wreg
  7155  0F6B  00F5               	movwf	(strcmp@s1)
  7156                           	line	37
  7157                           	
  7158  0F6C                     i1l6379:	
  7159  0F6C  2F6E               	goto	i1l6381
  7160                           	
  7161  0F6D                     i1l4272:	
  7162                           	line	38
  7163  0F6D  2F6E               	goto	i1l6381
  7164                           	
  7165  0F6E                     i1l4271:	
  7166                           	line	37
  7167                           	
  7168  0F6E                     i1l6381:	
  7169  0F6E  0875               	movf	(strcmp@s1),w
  7170  0F6F  0084               	movwf	fsr
  7171  0F70  1383               	bcf	status, 7	;select IRP bank0
  7172  0F71  0800               	movf	indf,w
  7173  0F72  00F2               	movwf	(??_strcmp+0)+0
  7174  0F73  3001               	movlw	01h
  7175  0F74  07F0               	addwf	(strcmp@s2),f
  7176  0F75  30FF               	movlw	-01h
  7177  0F76  0770               	addwf	(strcmp@s2),w
  7178  0F77  0084               	movwf	fsr0
  7179  0F78  120A  118A  270A   	fcall	stringdir
              120A  158A         
  7180  0F7D  3AFF               	xorlw	0ffh
  7181  0F7E  3E01               	addlw	1
  7182  0F7F  0772               	addwf	(??_strcmp+0)+0,w
  7183  0F80  00F3               	movwf	(??_strcmp+1)+0
  7184  0F81  0873               	movf	(??_strcmp+1)+0,w
  7185  0F82  00F4               	movwf	(strcmp@r)
  7186  0F83  08F4               	movf	((strcmp@r)),f
  7187  0F84  1D03               	skipz
  7188  0F85  2F87               	goto	u364_21
  7189  0F86  2F88               	goto	u364_20
  7190  0F87                     u364_21:
  7191  0F87  2F93               	goto	i1l6385
  7192  0F88                     u364_20:
  7193                           	
  7194  0F88                     i1l6383:	
  7195  0F88  0875               	movf	(strcmp@s1),w
  7196  0F89  0084               	movwf	fsr0
  7197  0F8A  3001               	movlw	01h
  7198  0F8B  07F5               	addwf	(strcmp@s1),f
  7199  0F8C  0880               	movf	indf,f
  7200  0F8D  1D03               	skipz
  7201  0F8E  2F90               	goto	u365_21
  7202  0F8F  2F91               	goto	u365_20
  7203  0F90                     u365_21:
  7204  0F90  2F6E               	goto	i1l6381
  7205  0F91                     u365_20:
  7206  0F91  2F93               	goto	i1l6385
  7207                           	
  7208  0F92                     i1l4274:	
  7209  0F92  2F93               	goto	i1l6385
  7210                           	
  7211  0F93                     i1l4275:	
  7212                           	line	39
  7213                           	
  7214  0F93                     i1l6385:	
  7215  0F93  0874               	movf	(strcmp@r),w
  7216  0F94  00F0               	movwf	(?_strcmp)
  7217  0F95  01F1               	clrf	(?_strcmp+1)
  7218  0F96  1BF0               	btfsc	(?_strcmp),7
  7219  0F97  03F1               	decf	(?_strcmp+1),f
  7220  0F98  2F99               	goto	i1l4276
  7221                           	
  7222  0F99                     i1l6387:	
  7223                           	line	40
  7224                           	
  7225  0F99                     i1l4276:	
  7226  0F99  0008               	return
  7227                           	opt stack 0
  7228                           GLOBAL	__end_of_strcmp
  7229  0F9A                     	__end_of_strcmp:
  7230 ;; =============== function _strcmp ends ============
  7231                           
  7232                           	signat	_strcmp,8314
  7233                           psect	text1168,local,class=CODE,delta=2
  7234                           global __ptext1168
  7235  0000                     __ptext1168:
  7236                           	global	btemp
  7237  007E                     	btemp set 07Eh
  7238                           
  7239                           	DABS	1,126,2	;btemp
  7240                           	global	wtemp0
  7241  007E                     	wtemp0 set btemp


HI-TECH Software PICC Macro Assembler V9.82 build 9453 
Symbol Table                                                                                   Thu Nov 13 10:16:25 2014

                        pc 0002        __end_ofi1_uart_putc 0D69        __end_ofi1_uart_puts 0EBD  
                       _RD 0C60                         _WR 0C61                         fsr 0004  
      ___wmul@multiplicand 0030           i1___wmul@product 0074              ?_displayToLCD 0051  
            ?_lcd_put_byte 002E                        _GIE 005F                        _RD1 0041  
                      _RD2 0042                        _RD3 0043                        _RD4 0044  
                      _RD5 0045                        _RD6 0046                        _RD7 0047  
                      _RX9 00C6                        _TX9 04C6                        fsr0 0004  
                      indf 0000                 i1_lcd_busy 0F9A                 i1_lcd_putc 066B  
               i1_lcd_puts 0EBD                       l1052 0D52                       l2110 02A5  
                     l1070 07CF                       l1055 0DE5                       l2111 02B1  
                     l1071 07CF                       l2120 02FB                       l2112 02BF  
                     l2121 0309                       l2113 02BE                       l1049 06F4  
                     l2130 0FFF                       l2122 0308                       l2114 02CA  
                     l2106 028D                       l2123 0314                       l2115 02D8  
                     l2107 028C                       l2124 0321                       l2116 02D7  
                     l2108 0298                       l1068 07A5                       l2125 0320  
                     l2117 02E3                       l2109 02A6                       l2141 0610  
                     l1069 07CE                       l2126 032C                       l2118 02F0  
                     l2150 0602                       l2142 05C5                       l2127 032C  
                     l2119 02EF                       l2151 0601                       l2143 05D0  
                     l2160 0F12                       l2152 060D                       l2144 05CF  
                     l3201 0D6D                       l2137 0451                       l2161 0F12  
                     l2145 05DB                       l2153 061A                       l3202 0D6D  
                     l3210 0F6A                       l2138 0500                       l2170 0DF3  
                     l2146 061A                       l3203 0D72                       l2171 0DF2  
                     l2147 05DC                       l3204 0D74                       l2172 0DFE  
                     l2156 0EF4                       l2148 05E8                       l2164 07EC  
                     l2173 0DFE                       l2157 0EF6                       l2149 060E  
                     l2165 07D3                       l2158 0F07                       l2166 07FD  
                     l3207 0F59                       l2159 0F06                       l2167 07FD  
                     l3240 002F                       l3208 0F40                       l3241 0033  
                     l3209 0F6A                       l3250 00A2                       l3242 003B  
                     l3251 009D                       l3243 0034                       l3252 0211  
                     l3260 00FD                       l3244 0047                       l4301 078D  
                     l3261 011A                       l3253 009E                       l3245 0046  
                     l4302 0767                       l3238 01FB                       l3270 0197  
                     l3262 013B                       l3254 009F                       l3246 0048  
                     l4303 075B                       l3271 017E                       l3263 0140  
                     l3255 00B9                       l3247 009C                       l3239 001D  
                     l4304 076C                       l3272 0196                       l3264 0177  
                     l3256 00A0                       l3248 005D                       l4305 076D  
                     l3273 01A9                       l3265 0156                       l3257 00D5  
                     l3249 009B                       l4306 077E                       l3274 01EF  
                     l3266 0176                       l3258 00E0                       l4307 078C  
                     l3275 01AF                       l3267 015D                       l3259 0108  
                     l4308 0794                       l3276 01FA                       l3268 0175  
                     l3277 0210                       l3269 01AA                       l3198 0E18  
                     l4262 0DCC                       l3278 0218                       l4263 0DCE  
                     l7001 061B                       l4267 0DB5                       l4291 0663  
                     l7011 0635                       l7003 061F                       l4268 0DB7  
                     l4292 0635                       l4285 0F18                       l7021 065B  
                     l7013 063B                       l4293 0629                       l7005 0625  
                     l4286 0F22                       l4294 063A                       l4287 0F37  
                     l7015 064C                       l4295 063B                       l7007 0629  
                     l7023 0663                       l7031 075B                       l4288 0F3E  
                     l4296 0654                       l6401 0E0A                       l7025 066A  
                     l4297 0662                       l7017 0652                       l7009 0630  
                     l7041 077E                       l7033 0762                       l7201 00CB  
                     l4298 066A                       l6323 0D4D                       l6411 0E15  
                     l6403 0E0D                       l7019 0654                       l7043 0785  
                     l7035 0767                       l7027 074F                       l7211 00E0  
                     l7203 00CF                       l6325 0D51                       l6413 0E16  
                     l6405 0E0E                       l7037 076D                       l7029 0757  
                     l7045 078D                       l7221 010E                       l7213 00FC  
                     l7205 00D5                       l7301 0494                       l6415 0E17  
                     l6407 0E0F                       l7047 0794                       l7039 0777  
                     l7231 0144                       l7223 0114                       l7215 00FD  
                     l7207 00D8                       l7311 04CF                       l7303 04A8  
                     l6409 0E12                       l7241 0164                       l7233 014A  
                     l7225 012D                       l7217 0101                       l7209 00DF  
                     l7313 04DF                       l7305 04B0                       l7321 0FD7  
                     l7401 0610                       l7251 0189                       l7243 0168  
                     l7235 0151                       l7227 013B                       l7219 0108  
                     l7171 002F                       l7163 0018                       l7315 04F5  
                     l7307 04B3                       l7331 0FFF                       l7323 0FDC  
                     l7403 07D2                       l7411 06BB                       l7261 01AF  
                     l7253 0197                       l7237 0156                       l7245 0177  
                     l7229 0140                       l7181 0048                       l7173 0031  
                     l7165 001D                       l7317 04FD                       l7309 04C1  
                     l7325 0FEC                       l7333 0DE6                       l7341 0230  
                     l7405 07D3                       l7413 06C0                       l7421 07A5  
                     l6391 0E03                       l7263 01E3                       l7255 019D  
                     l7247 017E                       l7239 015D                       l7191 00A1  
                     l7271 0211                       l7183 0058                       l7175 0035  
                     l7167 0023                       l7327 0FF2                       l7319 0FCD  
                     l7335 0DF3                       l7351 0298                       l7343 023C  
                     l7407 07E3                       l7415 06DE                       l7423 07BE  
                     l6393 0E04                       l7273 0218                       l7265 01EA  
                     l7257 01A4                       l7249 0185                       l7185 005D  
                     l7193 00A2                       l7177 003A                       l7169 002A  
                     l7281 0F59                       l7329 0FFA                       l7361 02D8  
                     l7353 02A6                       l7345 0253                       l7337 0219  
                     l7409 07EC                       l7417 06E9                       l6395 0E05  
                     l7267 01EF                       l7259 01AA                       l7195 00B9  
                     l7187 0086                       l7179 003B                       l7275 0F3F  
                     l7291 0456                       l7283 0442                       l7371 0314  
                     l7363 02E3                       l7355 02B1                       l7347 025E  
                     l7339 0227                       l7419 0795                       l6397 0E08  
                     l6389 0DFF                       l7197 00C3                       l7189 008A  
                     l7269 01FB                       l7277 0F40                       l7293 045E  
                     l7285 044B                       l7373 0321                       l7365 02F0  
                     l7357 02BF                       l7349 028D                       l7381 0EFA  
                     l6399 0E09                       l7199 00C7                       l7279 0F50  
                     l7295 0465                       l7287 044F                       l7367 02FB  
                     l7359 02CA                       l7383 0F07                       l7375 0EEB  
                     l7391 05DC                       l6761 0DCF                       l7297 0473  
                     l7289 0451                       l7369 0309                       l7377 0EEF  
                     l7393 05E8                       l7385 05C4                       l6763 0DE0  
                     l7299 0483                       l7379 0EF6                       l7395 05F4  
                     l7387 05C5                       l7397 0602                       l7389 05D0  
                     l7399 060F                       l6961 0DA4                       l6971 0DB7  
                     l6963 0DA5                       l6965 0DAB                       l6973 0D6C  
                     l6981 0DC2                       l6967 0DB1                       l6975 0D72  
                     l6983 0DC8                       l6991 0F18                       l6969 0DB5  
                     l6985 0DCC                       l6977 0DBB                       l6993 0F1C  
                     l6987 0DCE                       l6979 0DBC                       l6995 0F29  
                     l6997 0F37                       l6989 0F13                       l6999 0F3E  
                     STR_1 071A                       STR_2 0744                       STR_3 072A  
                     STR_4 0737                       _BRGH 04C2                       _CREN 00C4  
                     u5010 078B                       u5011 078A                       u5005 077F  
                     u5300 0023                       u5301 0022                       u5310 0058  
                     u5311 0057                       u5400 0144                       u5320 009A  
                     u5401 0143                       u5321 0099                       u5410 014A  
                     u5330 00CB                       u5411 0149                       u5331 00CA  
                     _PEIE 005E                       u5420 015C                       u5340 00DE  
                     u5500 044F                       u5421 015B                       u5341 00DD  
                     u5430 0174                       u5350 00FB                       u5510 0470  
                     u5431 0173                       u5351 00FA                       u5511 046C  
                     u4800 0DAB                       u5440 017D                       u5360 0107  
                     u4801 0DAA                       u5441 017C                       u5361 0106  
                     u4810 0DB1                       u5450 0195                       u5370 010E  
                     u5610 04CC                       u5530 0480                       u4811 0DB0  
                     u5451 0194                       u5371 010D                       u5355 00F7  
                     u5611 04C8                       u5531 047C                       _RCIE 0465  
                     u4820 0D71                       u5460 019D                       u5380 0114  
                     u5604 04C1                       u5524 0473                       u5700 02C9  
                     _RCIF 0065                       u4821 0D70                       u5461 019C  
                     u5381 0113                       u5701 02C8                       u4830 0DC2  
                     u4910 0639                       u5470 01F9                       u5390 012D  
                     u5630 04DC                       u5550 0491                       u5710 02E2  
                     u4831 0DC1                       u4911 0638                       u5471 01F8  
                     u5391 012C                       u5631 04D8                       u5551 048D  
                     u5711 02E1                       u4840 0DC8                       u5480 020F  
                     u5624 04CF                       u5544 0483                       u5720 02FA  
                     u5800 07FC                       u4841 0DC7                       u4905 062A  
                     u5481 020E                       u5721 02F9                       u5801 07FB  
                     u4850 0F1C                       u4930 064C                       u5490 0F69  
                     u5650 04ED                       u5570 04A0                       u5730 0313  
                     u4851 0F1B                       u4931 064B                       u5395 0129  
                     u5491 0F68                       u5651 04E9                       u5571 049C  
                     u5731 0312                       u5644 04DF                       u5564 0494  
                     u5740 032B                       u4925 063C                       u5741 032A  
                     u4950 0661                       u5590 04BE                       u5670 0DFD  
                     u5750 0EEF                       u4951 0660                       u4935 0648  
                     u5591 04BA                       u5671 0DFC                       u4880 0F36  
                     u4960 0757                       u5664 04F0                       u5584 04A3  
                     u5680 0297                       u5760 0F11                       u4881 0F35  
                     u4865 0F23                       u4945 0655                       u4961 0756  
                     u5681 0296                       u5761 0F10                       u5817 07C6  
                     u4890 0625                       u5690 02B0                       u5770 05DA  
                     u4875 0F2A                       u4891 0624                       u5907 0FEF  
                     u5691 02AF                       u5827 022B                       u5771 05D9  
                     u4980 076B                       u5780 05F4                       u4981 076A  
                     u5917 0FF7                       u5837 0242                       u5781 05F3  
                     u4990 0777                       u5790 060C                       u4991 0776  
                     u4975 075C                       u5927 0453                       u5847 0259  
                     u5791 060B                       u5937 045B                       u5857 0270  
                     u4995 0773                       u5947 04A5                       u5867 027B  
                     u5957 04AD                       u5877 0286                       u5967 04F2  
                     u5887 0FD9                       u5977 04FA                       u5897 0FE1  
                     _SPEN 00C7                       _SREN 00C5                       _TXIE 0464  
                     _WREN 0C62                       _TXEN 04C5                       _TXIF 0064  
                     _SYNC 04C4                       _main 0795                       _hour 005B  
             lcd_busy@busy 002F                       btemp 007E                       start 0012  
              i1_lcd_clear 0D8A  __size_of_enable_interrupt 0017             ??_displayToLCD 0057  
           ??_lcd_put_byte 002F                      ?_main 0070      __size_ofi1_lcd_gotoxy 0029  
                    _EEADR 010D                      _CARRY 0018            __end_of___lwdiv 066B  
          __end_of___lwmod 0795                      _RCREG 001A                      _TMR1H 000F  
                    _TMR1L 000E                      _SPBRG 0099                      _TXREG 0019  
          __end_of_isdigit 0DCF            __end_of_isprint 0DB8                      pclath 000A  
               i1isprint@c 0071           __end_ofi1___wmul 0E92                      status 0003  
      i1___wmul@multiplier 0070                      wtemp0 007E            __end_of_sprintf 0219  
              i1_uart_putc 0D5D                i1_uart_puts 0E92             i1lcd_busy@busy 0071  
             i1_lcd_gotoxy 0E3F               __end_of_main 07D2              lcd_gotoxy@col 0035  
            lcd_gotoxy@row 0033         __size_ofi1_isprint 0015                i1lcd_putc@c 007A  
              i1lcd_puts@s 007B                     ??_main 0058                ?i1_lcd_busy 0070  
              ?i1_lcd_putc 0070                ?i1_lcd_puts 0070                     _EEDATA 010C  
                   _EECON1 018C                     _EECON2 018D                     i1l1052 0D4C  
                   i1l1060 0386                     i1l1061 0385                     i1l1062 0433  
                   i1l1063 03C6                     i1l1064 042F                     i1l1065 0433  
                   i1l2130 0FCC                     i1l1058 0390                     i1l1059 0387  
                   i1l2141 06B2                     i1l2150 06A4                     i1l2142 066D  
                   i1l2151 06A3                     i1l2143 0678                     i1l2160 0E67  
                   i1l2152 06AF                     i1l2144 0677                     i1l3201 0D5F  
                   i1l2137 0511                     i1l2161 0E67                     i1l2145 0683  
                   i1l2153 06BA                     i1l3202 0D5F                     i1l2138 05C0  
                   i1l3210 0EBC                     i1l2170 0D95                     i1l2146 06BA  
                   i1l3203 0D66                     i1l2171 0D94                     i1l2147 0684  
                   i1l3204 0D68                     i1l2156 0E49                     i1l2172 0DA0  
                   i1l2148 068E                     i1l2164 0ED6                     i1l3213 06F6  
                   i1l2157 0E4B                     i1l2173 0DA0                     i1l2149 06B0  
                   i1l2165 0EBF                     i1l3214 06F6                     i1l2158 0E5C  
                   i1l2166 0EE7                     i1l3215 06FD                     i1l3207 0EAB  
                   i1l2159 0E5B                     i1l2167 0EE7                     i1l3216 06FF  
                   i1l3224 0E36                     i1l3208 0E94                     i1l3225 0E26  
                   i1l3209 0EBC                     i1l3226 0E3E                     i1l3227 0E3E  
                   i1l4271 0F6E                     i1l4272 0F6D                     i1l4274 0F92  
                   i1l4275 0F93                     i1l4267 0D87                     _T1SYNC 0082  
                   i1l4276 0F99                     i1l4268 0D89                     i1l4285 0E6B  
                   i1l7101 066D                     i1l4286 0E75                     i1l4287 0E8A  
                   i1l7111 06A4                     i1l7103 0678                     i1l4288 0E91  
                   i1l7121 0E4B                     i1l7113 06B1                     i1l7105 0684  
                   i1l7051 0FA4                     i1l7123 0E4F                     i1l7107 068E  
                   i1l7115 06B2                     i1l7131 0ECF                     i1l7141 0D66  
                   i1l7061 0FCC                     i1l7053 0FA9                     i1l7125 0E5C  
                   i1l7117 0E40                     i1l7109 0698                     i1l7133 0ED6  
                   i1l6511 0D47                     i1l7151 0D76                     i1l7055 0FB9  
                   i1l7071 0516                     i1l7063 0502                     i1l7143 0E93  
                   i1l7119 0E44                     i1l7135 0D8A                     i1l7127 0EBE  
                   i1l6433 06F5                     i1l6513 0D4B                     i1l7161 0D89  
                   i1l7153 0D77                     i1l7057 0FBF                     i1l7049 0F9A  
                   i1l7081 0554                     i1l7073 051E                     i1l7065 050B  
                   i1l7145 0E94                     i1l7137 0D95                     i1l7129 0EBF  
                   i1l6435 06FD                     i1l7139 0D5E                     i1l7155 0D7D  
                   i1l6371 0E1A                     i1l7059 0FC7                     i1l7091 058F  
                   i1l7083 0568                     i1l7075 0525                     i1l7067 050F  
                   i1l7147 0EA4                     i1l6381 0F6E                     i1l6437 06FF  
                   i1l7157 0D83                     i1l6373 0E26                     i1l7093 059F  
                   i1l7085 0570                     i1l7077 0533                     i1l7069 0511  
                   i1l7149 0EAB                     i1l6383 0F88                     i1l7159 0D87  
                   i1l6631 0E6B                     i1l6375 0E2A                     i1l7095 05B5  
                   i1l7087 0573                     i1l7079 0543                     i1l6385 0F93  
                   i1l6633 0E6F                     i1l6377 0E36                     i1l7097 05BD  
                   i1l7089 0581                     i1l6387 0F99                     i1l6379 0F6C  
                   i1l6635 0E7C                     i1l7099 066C                     i1l6637 0E8A  
                   i1l6629 0E68                     i1l6639 0E91                     i1l6921 0333  
                   i1l6931 035A                     i1l6923 0339                     i1l6933 0367  
                   i1l6941 0387                     i1l6925 0341                     i1l6951 03B4  
                   i1l6943 038A                     i1l6935 036B                     i1l6927 034E  
                   i1l6919 032D                     i1l6953 03B9                     i1l6937 0373  
                   i1l6929 0352                     i1l6945 0390                     i1l6955 03BF  
                   i1l6947 0396                     i1l6939 0380                     i1l6957 03C6  
                   i1l6949 039C                     i1l6959 042F                     u420_20 0E89  
                   u420_21 0E88                     u502_20 050F                     u510_24 0563  
                   u511_20 057E                     u503_20 0530                     u511_21 057A  
                   u503_21 052C                     u520_20 0698                     u520_21 0697  
                   u512_24 0581                     u504_24 0533                     u600_27 0565  
                   u417_20 0E6F                     u513_20 058C                     u505_20 0540  
                   u521_20 06AE                     u417_21 0E6E                     u513_21 0588  
                   u505_21 053C                     u521_21 06AD                     u601_27 056D  
                   u522_20 0E44                     u514_24 058F                     u506_24 0543  
                   u418_25 0E76                     u602_27 05B2                     u363_20 0E3D  
                   u515_20 059C                     u507_20 0551                     u523_20 0E66  
                   u363_21 0E3C                     u515_21 0598                     u507_21 054D  
                   u523_21 0E65                     u419_25 0E7D                     u603_27 05BA  
                   u364_20 0F88                     u524_20 0EE6                     u364_21 0F87  
                   u524_21 0EE5                     u516_24 059F                     u508_24 0554  
                   u604_27 0FA6                     u365_20 0F91                     u517_20 05AD  
                   u509_20 0560                     u525_20 0D9F                     u365_21 0F90  
                   u517_21 05A9                     u509_21 055C                     u525_21 0D9E  
                   u605_27 0FAE                     u526_20 0D65                     u526_21 0D64  
                   u518_24 05B0                     u606_27 0FBC                     u527_20 0EBB  
                   u519_20 0682                     u527_21 0EBA                     u519_21 0681  
                   u607_27 0FC4                     u528_20 0D7D                     u472_20 0333  
                   u528_21 0D7C                     u472_21 0332                     u369_20 06FC  
                   u529_20 0D83                     u473_20 0339                     u369_21 06FB  
                   u529_21 0D82                     u473_21 0338                     u474_20 034E  
                   u474_21 034D                     u474_25 034A                     u475_20 0367  
                   u475_21 0366                     u475_25 0363                     u476_20 0380  
                   u476_21 037F                     u476_25 037C                     u477_20 0396  
                   u477_21 0395                     u478_20 039C                     u478_21 039B  
                   u479_20 03B4                     u479_21 03B3                     _TMR1IE 0460  
                   _TMR1IF 0060                     _TMR1CS 0081                     u598_27 0513  
                   u599_27 051B                     _TMR1ON 0080                     _TRISD1 0441  
                   _TRISD2 0442                     _TRISD3 0443                     _TRISD4 0444  
                   _TRISC6 043E                     _TRISD5 0445                     _TRISC7 043F  
                   _TRISD6 0446                     _TRISD7 0447               ?_set_counter 0070  
         __end_of_lcd_busy 1000           __end_of_lcd_init 032D           __end_of_lcd_putc 061B  
         __end_of_lcd_puts 07FE                     ___wmul 0F13                  ??___lwdiv 0032  
                ??___lwmod 003A                     _minute 005D                     _second 005F  
                   _strcmp 0F6B              lcd_put_byte@b 002E                  ??_isdigit 002E  
                   saved_w 007E                  ??_isprint 002E                  ??_sprintf 0043  
        __end_ofi1_isprint 0D8A       __end_of_displayToLCD 06F5       __end_of_lcd_put_byte 0501  
           __pcstackCOMMON 0070        __size_ofi1_lcd_busy 0033        __size_ofi1_lcd_putc 0050  
      __size_ofi1_lcd_puts 002B           _enable_interrupt 0DCF                  ?i1___wmul 0070  
          i1lcd_gotoxy@col 0077            i1lcd_gotoxy@row 0075         __size_of_lcd_clear 0019  
        lcd_gotoxy@address 0036               sprintf@width 004D                 __pbssBANK0 005B  
             ?i1_lcd_clear 0070                 __pmaintext 0795                    ?___wmul 002E  
               __pintentry 0004                 __ptext1140 0FCD                 __ptext1141 043F  
               __ptext1150 0DA1                 __ptext1142 0DCF                 __ptext1134 06BB  
               __ptext1151 0DFF                 __ptext1143 0F3F                 __ptext1135 07D2  
               __ptext1160 0F9A                 __ptext1152 0D4D                 __ptext1144 0015  
               __ptext1136 05C1                 __ptext1161 0E19                 __ptext1153 032D  
               __ptext1145 074F                 __ptext1137 0EE8                 __ptext1162 0E68  
               __ptext1154 0EBD                 __ptext1146 061B                 __ptext1138 0219  
               __ptext1163 0D75                 __ptext1155 066B                 __ptext1147 0F13  
               __ptext1139 0DE6                 __ptext1164 0D5D                 __ptext1156 0D8A  
               __ptext1148 0DB8                 __ptext1165 0D47                 __ptext1157 0E3F  
               __ptext1149 0D69                 __ptext1166 06F5                 __ptext1158 0E92  
               __ptext1167 0F6B                 __ptext1159 0501                 __ptext1168 0000  
               ??i1___wmul 0074                    _T1CKPS0 0084                    _T1CKPS1 0085  
                  ?_strcmp 0070                    _T1OSCEN 0083         __size_of_uart_getc 000B  
       __size_of_uart_gets 0026         __size_of_uart_init 001A         __size_of_uart_putc 000C  
       __size_of_uart_puts 002C    __size_ofi1_lcd_put_byte 00C0                 _lcd_gotoxy 0EE8  
          i1lcd_put_byte@b 0070     __size_ofi1_set_counter 0006                  ?_lcd_busy 0070  
                ?_lcd_init 0070                  ?_lcd_putc 0070                  ?_lcd_puts 0039  
             ?i1_uart_putc 0070               ?i1_uart_puts 0070          __end_of_lcd_clear 0DFF  
     __size_of_set_counter 0006            __size_of___wmul 002C                    ___lwdiv 061B  
                  ___lwmod 074F             displayToLCD@h1 0051             displayToLCD@m1 0053  
           displayToLCD@s1 0055            __size_of_strcmp 002F                    _dpowers 0710  
                  _isdigit 0DB8                 _inter_func 032D                    _isprint 0DA1  
             ??i1_lcd_busy 0070               ??i1_lcd_putc 0079               ??i1_lcd_puts 007B  
    __size_of_displayToLCD 003A      __size_of_lcd_put_byte 00C2                    _sprintf 0015  
               ??_lcd_busy 002E                 ??_lcd_init 0033                 ??_lcd_putc 0037  
               ??_lcd_puts 003B       end_of_initialization 0D59             lcd_put_byte@rs 0031  
        __end_of_uart_getc 0700          __end_of_uart_gets 0E3F          __end_of_uart_init 0E19  
        __end_of_uart_putc 0D75          __end_of_uart_puts 0F6B              i1_set_counter 0D47  
          inter_func@input 0026         __end_ofi1_lcd_busy 0FCD         __end_ofi1_lcd_putc 06BB  
       __end_ofi1_lcd_puts 0EE8      i1___wmul@multiplicand 0072                    strcmp@r 0074  
             _displayToLCD 06BB               _lcd_put_byte 043F                ?_lcd_gotoxy 0033  
 __end_of_enable_interrupt 0DE6               i1uart_putc@c 0070               i1uart_puts@s 0071  
                i1_isprint 0D75             ?i1_set_counter 0070       __size_ofi1_lcd_clear 0017  
           __end_of___wmul 0F3F             __end_of_strcmp 0F9A                ?_inter_func 0070  
           i1_lcd_put_byte 0501        start_initialization 0D53          __size_ofi1___wmul 002A  
               ?i1_isprint 0070       __size_ofi1_uart_putc 000C       __size_ofi1_uart_puts 002B  
      __size_of_lcd_gotoxy 002B                   ??___wmul 0032                   ??_strcmp 0072  
   __end_ofi1_lcd_put_byte 05C1              __pcstackBANK0 0020              __pcstackBANK1 00A0  
             _isdigit$4891 002E          __size_of_lcd_busy 0033          __size_of_lcd_init 0114  
              sprintf@_val 0048                sprintf@flag 004C          __size_of_lcd_putc 005A  
        __size_of_lcd_puts 002C                sprintf@prec 0047            ??i1_set_counter 0070  
         ___lwdiv@dividend 0030        __size_of_inter_func 0112           displayToLCD@temp 00A0  
            ?i1_lcd_gotoxy 0075        i1lcd_gotoxy@address 0078                   ?___lwdiv 002E  
                 ?___lwmod 0036                  _lcd_clear 0DE6                  __pstrings 0700  
          ?i1_lcd_put_byte 0070                   ?_isdigit 0070                   ?_isprint 0070  
         ___lwdiv@quotient 0034                   ?_sprintf 003C          interrupt_function 0004  
           ___wmul@product 0032                ??i1_isprint 0070             ??i1_lcd_gotoxy 0076  
            ??_set_counter 002E                  _uart_getc 06F5                  _uart_gets 0E19  
               uart_gets@s 0071                  _uart_init 0DFF                  _uart_putc 0D69  
                _uart_puts 0F3F           i1lcd_put_byte@rs 0073                 ?_lcd_clear 0070  
               uart_putc@c 002E                 uart_puts@s 002F                __stringbase 070F  
        ___wmul@multiplier 002E                   i1___wmul 0E68                  lcd_putc@c 0038  
                lcd_puts@s 0039               ??_lcd_gotoxy 0034          ?_enable_interrupt 0070  
         lcd_put_byte@temp 0032               _isprint$4894 002E         ??_enable_interrupt 002E  
               ?_uart_getc 0070                 ?_uart_gets 0070                 ?_uart_init 0070  
               ?_uart_putc 0070                 ?_uart_puts 002F         __end_of_lcd_gotoxy 0F13  
         __size_of___lwdiv 0050           __size_of___lwmod 0046        __end_of_set_counter 0D53  
             ??_inter_func 0020           __size_of_isdigit 0017            ___lwdiv@divisor 002E  
          ___lwdiv@counter 0033           __size_of_isprint 0017                   _lcd_busy 0FCD  
                 _lcd_init 0219                   _lcd_putc 05C1                   _lcd_puts 07D2  
         __size_of_sprintf 0204              __size_of_main 003D              ??i1_lcd_clear 0075  
           i1_isprint$4894 0070         __end_of_inter_func 043F                ??_lcd_clear 0033  
     __end_ofi1_lcd_gotoxy 0E68                   isdigit@c 002F                   intlevel1 0000  
                sprintf@ap 0046                  sprintf@sp 004F           ___lwmod@dividend 0038  
                 isprint@c 002F              ??i1_uart_putc 0070              ??i1_uart_puts 0071  
                stringcode 070A                _set_counter 0D4D                ??_uart_getc 0070  
              ??_uart_gets 0070                ??_uart_init 002E           ??i1_lcd_put_byte 0071  
              ??_uart_putc 002E                ??_uart_puts 0031        __end_ofi1_lcd_clear 0DA1  
                 sprintf@c 0050                   sprintf@f 003C                   strcmp@s1 0075  
                 strcmp@s2 0070            ___lwmod@divisor 0036            ___lwmod@counter 003B  
                 stringdir 070A                   stringtab 0700         i1lcd_put_byte@temp 0074  
    __end_ofi1_set_counter 0D4D  
